(dp0
I2016
(lp1
Vhttp://www.kcbs.us/event/6446/
p2
aVhttp://www.kcbs.us/event/5924/national-western-bbq-throwdown
p3
aVhttp://www.kcbs.us/event/6085/100000-usa-barbecue-championshipcancelled
p4
aVhttp://www.kcbs.us/event/6000/lakeland-pig-festival
p5
aVhttp://www.kcbs.us/event/5923/brasstown-valleys-bbq-throwdown-gbc-qualifier--teams-full-judges-full
p6
aVhttp://www.kcbs.us/event/6227/the-queen-creek-bbq-battle
p7
aVhttp://www.kcbs.us/event/6402/the-pigguinea-pig
p8
aVhttp://www.kcbs.us/event/5816/shotgun-fred-bbq-showdown
p9
aVhttp://www.kcbs.us/event/6356/sams-club-national-bbq-tour
p10
aVhttp://www.kcbs.us/event/5922/boda-getta-bbq
p11
aVhttp://www.kcbs.us/event/6008/sip-swine-bbq-festival-gbc-qualifier
p12
aVhttp://www.kcbs.us/event/6159/fire-on-ice-barbecue-world-championship
p13
aVhttp://www.kcbs.us/event/6362/sams-club-national-bbq-tour
p14
aVhttp://www.kcbs.us/event/5885/flames-on-the-flint-gbc-qualifier
p15
aVhttp://www.kcbs.us/event/6107/smoke-on-the-shores
p16
aVhttp://www.kcbs.us/event/6363/sams-club-national-bbq-tour
p17
aVhttp://www.kcbs.us/event/6240/bbq-brewbackyard
p18
aVhttp://www.kcbs.us/event/5808/smokin-in-the-square
p19
aVhttp://www.kcbs.us/event/6100/tupelo-bbq-duel--comp-1
p20
aVhttp://www.kcbs.us/event/6377/sams-club-national-bbq-tour
p21
aVhttp://www.kcbs.us/event/6417/tupelo-bbq-duel--comp-2
p22
aVhttp://www.kcbs.us/event/5954/firelake-bbq-cook-off
p23
aVhttp://www.kcbs.us/event/6379/sams-club-national-bbq-tour
p24
aVhttp://www.kcbs.us/event/6460/hamond-bbq
p25
aVhttp://www.kcbs.us/event/5938/indian-river-twisted-tail-bbq-cookoff-judges-registration-full
p26
aVhttp://www.kcbs.us/event/6021/cedar-fest-bbq
p27
aVhttp://www.kcbs.us/event/6055/stillwater-elks-lodge-blazathon
p28
aVhttp://www.kcbs.us/event/6253/blues-hog-bbq-music-fest
p29
aVhttp://www.kcbs.us/event/6302/the-ironman
p30
aVhttp://www.kcbs.us/event/6336/smokin-on-big-creek-bbq-contest-benefiting-operation-bbq-relief
p31
aVhttp://www.kcbs.us/event/6355/5th-annual-santa-anita-winners-circle-bbq-championship
p32
aVhttp://www.kcbs.us/event/6380/sams-club-national-bbq-tour
p33
aVhttp://www.kcbs.us/event/5937/que-at-the-view
p34
aVhttp://www.kcbs.us/event/5960/florida-heritage-bbq-classic-cancelled
p35
aVhttp://www.kcbs.us/event/6012/nyc-bbq-cookoff
p36
aVhttp://www.kcbs.us/event/6013/the-best-damn-bbq-contest-at-smithville-lake
p37
aVhttp://www.kcbs.us/event/6040/sixth-annual-bull-moose
p38
aVhttp://www.kcbs.us/event/6102/smoke-in-the-spring
p39
aVhttp://www.kcbs.us/event/6128/chillin-grillin
p40
aVhttp://www.kcbs.us/event/6145/smoke-on-the-falls-noccalula-bbq-fest
p41
aVhttp://www.kcbs.us/event/6199/triple-threat-bbq-beer-and-music-festval
p42
aVhttp://www.kcbs.us/event/6381/sams-club-national-bbq-tour
p43
aVhttp://www.kcbs.us/event/5932/main-street-bbq-bluesfest
p44
aVhttp://www.kcbs.us/event/5996/cornelia-apple-blossom-bbq-brews-festival
p45
aVhttp://www.kcbs.us/event/6041/interstate-bbq-festival
p46
aVhttp://www.kcbs.us/event/6074/roberts-ranch-smokin-red-dirt-bbq
p47
aVhttp://www.kcbs.us/event/6144/qc-bbq-grill-in-and-cookoff-at-quail-creek-resort-backyard
p48
aVhttp://www.kcbs.us/event/6244/the-ultimate-bbq-showdown-east-vs-west-vii
p49
aVhttp://www.kcbs.us/event/6295/high-on-the-hog-festival
p50
aVhttp://www.kcbs.us/event/6317/20th-annual-fire-house-bbq-cook-off
p51
aVhttp://www.kcbs.us/event/6382/sams-club-national-bbq-tour
p52
aVhttp://www.kcbs.us/event/6483/shelby-forest-spring-fest-smokin-in-the-forest
p53
aVhttp://www.kcbs.us/event/5921/ccs-fest-ccs-spring-festival-bbq-competition
p54
aVhttp://www.kcbs.us/event/5926/morris-twister-days-bbq-competition
p55
aVhttp://www.kcbs.us/event/5955/wabash-ribberfest-bbq-championship
p56
aVhttp://www.kcbs.us/event/5993/rock-n-ribs-bbq-festival
p57
aVhttp://www.kcbs.us/event/6068/southaven-springfest
p58
aVhttp://www.kcbs.us/event/6091/8th-annual-vfw-post-846-bbq-challenge
p59
aVhttp://www.kcbs.us/event/6096/uptown-lexington-bbq-capital-cook-off
p60
aVhttp://www.kcbs.us/event/6261/2nd-annual-smokin-aint-allowed-in-school-backyard-bbq-fest-backyard
p61
aVhttp://www.kcbs.us/event/6384/sams-club-national-bbq-tour-regional
p62
aVhttp://www.kcbs.us/event/6414/central-iowa-expo-bbq-day-1-judges-full
p63
aVhttp://www.kcbs.us/event/6440/bynum-schools-best-of-the-basin
p64
aVhttp://www.kcbs.us/event/6400/backyard-bbq-brawl-in-the-boro-backyard
p65
aVhttp://www.kcbs.us/event/6415/central-iowa-expo-bbq-day-2-judges-full
p66
aVhttp://www.kcbs.us/event/6447/southern-hot-wing-festival-competitors-series
p67
aVhttp://www.kcbs.us/event/5907/fire-at-the-foothills-bbq-chili-cook-off-backyard-contest
p68
aVhttp://www.kcbs.us/event/5939/bbq-boogie-blues-gbc-qualifier
p69
aVhttp://www.kcbs.us/event/5965/smokin-on-the-water
p70
aVhttp://www.kcbs.us/event/5969/masters-in-may
p71
aVhttp://www.kcbs.us/event/5995/the-g-town-smokin-showdown
p72
aVhttp://www.kcbs.us/event/6066/smokin-on-the-prairie-bbq-cook-off
p73
aVhttp://www.kcbs.us/event/6152/smokin-in-the-ville
p74
aVhttp://www.kcbs.us/event/6364/sams-club-national-bbq-tour
p75
aVhttp://www.kcbs.us/event/6429/3rd-annual-pickin-n-pullin
p76
aVhttp://www.kcbs.us/event/6473/downtown-bbq-throwdown
p77
aVhttp://www.kcbs.us/event/6494/elk-grove-western-festival-and-bbq-championship
p78
aVhttp://www.kcbs.us/event/5964/ridgefield-gone-country-bbq-festival
p79
aVhttp://www.kcbs.us/event/5966/smokin-on-the-water-2
p80
aVhttp://www.kcbs.us/event/5970/masters-in-may--the-classic
p81
aVhttp://www.kcbs.us/event/6538/elk-grove-western-festival-and-bbq-championship-back-yard
p82
aVhttp://www.kcbs.us/event/5930/4th-annual-bbq-throwdown
p83
aVhttp://www.kcbs.us/event/5946/george-county-firefighters-association-bbq-challenge
p84
aVhttp://www.kcbs.us/event/5999/the-whistlestop-festival-rocket-city-bbq
p85
aVhttp://www.kcbs.us/event/6009/brews-blues-bar-b-q
p86
aVhttp://www.kcbs.us/event/6029/naptown-barbayq-contest-and-music-festival
p87
aVhttp://www.kcbs.us/event/6116/jiggy-with-the-piggy
p88
aVhttp://www.kcbs.us/event/6135/sertoma-48-bbq
p89
aVhttp://www.kcbs.us/event/6136/truman-heritage-festival-bbq-championship
p90
aVhttp://www.kcbs.us/event/6187/smokin-in-mesquite-bbq-championship
p91
aVhttp://www.kcbs.us/event/6257/columbia-elks-lodge-594-bbq-contest
p92
aVhttp://www.kcbs.us/event/6263/apple-blossom-bar-b-q
p93
aVhttp://www.kcbs.us/event/6279/bixby-bbqn-blues-festival
p94
aVhttp://www.kcbs.us/event/6294/smoke-in-the-valley-bbq-competition
p95
aVhttp://www.kcbs.us/event/6365/sams-club-national-bbq-tour
p96
aVhttp://www.kcbs.us/event/6413/route-66-smoke-out
p97
aVhttp://www.kcbs.us/event/6594/umb-smokin-vault-competitors-invitational-series
p98
aVhttp://www.kcbs.us/event/5948/fire-on-the-mountain-bbq-cook-off-and-spring-festival-backyard-bbq-contest-only
p99
aVhttp://www.kcbs.us/event/5949/boss-hog-state-championship-cook-off-gbc-qualifier
p100
aVhttp://www.kcbs.us/event/6019/mississippi-springfest-bbq-contest
p101
aVhttp://www.kcbs.us/event/6022/minnesota-in-may
p102
aVhttp://www.kcbs.us/event/6043/rockin-bbq
p103
aVhttp://www.kcbs.us/event/6067/bbq-jamboree
p104
aVhttp://www.kcbs.us/event/6075/the-pearl-city-picnic-competitors-series
p105
aVhttp://www.kcbs.us/event/6149/roman-roast-on-the-river
p106
aVhttp://www.kcbs.us/event/6166/21st-annual-platte-city-bbq-cook-off-at-basswood-resort
p107
aVhttp://www.kcbs.us/event/6206/wild-west-bbq-cook-off
p108
aVhttp://www.kcbs.us/event/6276/madison-magazine-bbq-festival
p109
aVhttp://www.kcbs.us/event/6287/bbq-in-the-bluffs
p110
aVhttp://www.kcbs.us/event/6357/sams-club-national-bbq-tour
p111
aVhttp://www.kcbs.us/event/6409/west-coast-bbq-classic
p112
aVhttp://www.kcbs.us/event/6442/smoke-on-the-water-backyard-contest
p113
aVhttp://www.kcbs.us/event/6467/boots-and-bbq-festival
p114
aVhttp://www.kcbs.us/event/6529/2016-smokin-in-the-wood-bbq-competition
p115
aVhttp://www.kcbs.us/event/5974/bbq-4-astop
p116
aVhttp://www.kcbs.us/event/6049/grand-lake-bbq-festival
p117
aVhttp://www.kcbs.us/event/6050/loving-learners-bbq-smoke-off-cancelled
p118
aVhttp://www.kcbs.us/event/6092/5th-annual-valley-veterans-bbq-competition
p119
aVhttp://www.kcbs.us/event/6235/chesapeake-jubilee
p120
aVhttp://www.kcbs.us/event/6241/kings-of-q-bbq-cook-off-and-festival
p121
aVhttp://www.kcbs.us/event/6290/salt-city-bbq-festival
p122
aVhttp://www.kcbs.us/event/6343/barber-q-battle
p123
aVhttp://www.kcbs.us/event/6354/smokin-for-garrett
p124
aVhttp://www.kcbs.us/event/6358/sams-club-national-bbq-tour
p125
aVhttp://www.kcbs.us/event/6407/piggin-in-the-park
p126
aVhttp://www.kcbs.us/event/6416/bloomin-bbq-bluegrass
p127
aVhttp://www.kcbs.us/event/6431/2nd-annual-pork-in-the-park
p128
aVhttp://www.kcbs.us/event/6452/saltwater-brew-n-que
p129
aVhttp://www.kcbs.us/event/6108/red-white-bbq-day-1
p130
aVhttp://www.kcbs.us/event/6113/lewisburg-rotary-club-bbq-cookoff
p131
aVhttp://www.kcbs.us/event/6189/hog-wild-bbq-cookoff-and-family-festival
p132
aVhttp://www.kcbs.us/event/6192/papa-joes-banjo-b-que-music-festival-gbc-qualifier
p133
aVhttp://www.kcbs.us/event/6248/pigmaina-lima
p134
aVhttp://www.kcbs.us/event/6424/best-dam-barbecue
p135
aVhttp://www.kcbs.us/event/6439/35th-annual-kennett-jaycees-show-me-state-bbq-cook-off
p136
aVhttp://www.kcbs.us/event/6471/the-national-bbq-cup-day-1
p137
aVhttp://www.kcbs.us/event/6574/hog-wildcancelled
p138
aVhttp://www.kcbs.us/event/6058/roc-city-rib-fest
p139
aVhttp://www.kcbs.us/event/6076/bbq-blues-brews-on-the-bay
p140
aVhttp://www.kcbs.us/event/6109/red-white-bbq-day-2
p141
aVhttp://www.kcbs.us/event/6472/the-national-bbq-cup-day-2
p142
aVhttp://www.kcbs.us/event/5919/smokin-in-steele
p143
aVhttp://www.kcbs.us/event/5968/horse-town-brew-n-que-festival
p144
aVhttp://www.kcbs.us/event/5977/kelley-wilson-memorial-bbq-competition-kwbbq
p145
aVhttp://www.kcbs.us/event/6007/taste-the-spirit-of-madison-backyard-cancelled
p146
aVhttp://www.kcbs.us/event/6079/mclouth-bbq-blowout-25th-anniversary-judges-full
p147
aVhttp://www.kcbs.us/event/6088/original-sd-bbq-championships
p148
aVhttp://www.kcbs.us/event/6137/5th-annual-smokin-on-the-lake
p149
aVhttp://www.kcbs.us/event/6138/hott-butts-bbq-contest
p150
aVhttp://www.kcbs.us/event/6150/variety-childrens-charity-bbq-bash
p151
aVhttp://www.kcbs.us/event/6190/poor-que
p152
aVhttp://www.kcbs.us/event/6211/euharlee-covered-bridge-que-gbc-qualifier
p153
aVhttp://www.kcbs.us/event/6255/up-in-smoke-on-the-square
p154
aVhttp://www.kcbs.us/event/6270/bourbon-city-bbq-festival-cancelled
p155
aVhttp://www.kcbs.us/event/6274/big-blue-bbq-championship
p156
aVhttp://www.kcbs.us/event/6285/hog-happenin-bbq-bike-fest
p157
aVhttp://www.kcbs.us/event/6332/royal-gorge-holy-smoke-bbq-showdown
p158
aVhttp://www.kcbs.us/event/6337/que-for-the-troops
p159
aVhttp://www.kcbs.us/event/6385/sams-club-national-bbq-tour
p160
aVhttp://www.kcbs.us/event/6443/keepers-of-the-fire-bbq-contest
p161
aVhttp://www.kcbs.us/event/6444/smokin-on-the-summit-bbq
p162
aVhttp://www.kcbs.us/event/6514/conquer-the-grill
p163
aVhttp://www.kcbs.us/event/6526/fire-it-up-5-bbq-competition
p164
aVhttp://www.kcbs.us/event/6537/beltway-bbq-showdown
p165
aVhttp://www.kcbs.us/event/6543/fire-in-the-valley-red-bank-bbq-backyard
p166
aVhttp://www.kcbs.us/event/6558/fire-in-the-valley-red-bank-bbq
p167
aVhttp://www.kcbs.us/event/6589/sparkle-city-rhythm-ribs-festival-backyard
p168
aVhttp://www.kcbs.us/event/6478/granite-state-bbq-championship
p169
aVhttp://www.kcbs.us/event/5959/elkmont-lions-club-smokin-railroad-street-bbq-cookoff-backyard
p170
aVhttp://www.kcbs.us/event/5976/marietta-river-city-bbq
p171
aVhttp://www.kcbs.us/event/6070/delta-smoke-bbq-contest
p172
aVhttp://www.kcbs.us/event/6084/elf-khurafeh-shrine-bbq-competition-and-music-festival
p173
aVhttp://www.kcbs.us/event/6126/fitzgerald-pig-pickin
p174
aVhttp://www.kcbs.us/event/6164/fire-on-the-frontier-bbq-classic
p175
aVhttp://www.kcbs.us/event/6175/the-historic-new-castle-colonial-bbq-competition-at-battery-park
p176
aVhttp://www.kcbs.us/event/6198/blue-ridge-bbq-music-festival
p177
aVhttp://www.kcbs.us/event/6201/grillin-the-rockies-bbq-championship-cancelled
p178
aVhttp://www.kcbs.us/event/6209/smoke-on-the-prairie-cancelled
p179
aVhttp://www.kcbs.us/event/6219/mocklahoma-ribs-roll-bbq-championship
p180
aVhttp://www.kcbs.us/event/6229/califorina-honey-harvest-festival-and-bbq-championship
p181
aVhttp://www.kcbs.us/event/6247/boats-bands-bbq
p182
aVhttp://www.kcbs.us/event/6386/sams-club-national-bbq-tour
p183
aVhttp://www.kcbs.us/event/6458/mankato-cookout-day-1
p184
aVhttp://www.kcbs.us/event/6535/smoke-out-hunger-bbq-challenge
p185
aVhttp://www.kcbs.us/event/6540/big-kahuna-wing-festival-competitors-series
p186
aVhttp://www.kcbs.us/event/6611/ky-fort-harrod-beef-festival-grill-offcompetitors-series
p187
aVhttp://www.kcbs.us/event/6636/reelin-n-smokinbackyard
p188
aVhttp://www.kcbs.us/event/6053/sun-bbq-fest
p189
aVhttp://www.kcbs.us/event/6459/mankato-cookout-day-2-and-back-yard
p190
aVhttp://www.kcbs.us/event/6561/tonganoxie-days-bbq-blowout
p191
aVhttp://www.kcbs.us/event/6575/ribs-rocketscompetitor-seriesinvite-only-judges-full
p192
aVhttp://www.kcbs.us/event/5940/almost-heaven-bbq-bash
p193
aVhttp://www.kcbs.us/event/6042/barbourville-bbq-cookoff-festival
p194
aVhttp://www.kcbs.us/event/6093/23rd-annual-colorado-bbq-challenge
p195
aVhttp://www.kcbs.us/event/6130/peak-city-pigfest
p196
aVhttp://www.kcbs.us/event/6147/the-desoto-shrine-club-8th-annual-bbq-cook-off
p197
aVhttp://www.kcbs.us/event/6184/hog-and-steer-barbecue-competition-and-festival
p198
aVhttp://www.kcbs.us/event/6186/custer-county-community-tablemiles-city-cowtown-cook-off
p199
aVhttp://www.kcbs.us/event/6207/state-center-rose-festival-kcbs-bbq-competition-judges-full
p200
aVhttp://www.kcbs.us/event/6208/eureka-bbq-bash
p201
aVhttp://www.kcbs.us/event/6223/crossborder-boots-brews-quecancelled
p202
aVhttp://www.kcbs.us/event/6297/smoke-on-the-water-annual-carlton-landing-bbq-competition
p203
aVhttp://www.kcbs.us/event/6359/sams-club-national-bbq-tour
p204
aVhttp://www.kcbs.us/event/6469/treasure-island-bbq-steak-food-fest
p205
aVhttp://www.kcbs.us/event/6477/hog-capital-challenge---judges-full
p206
aVhttp://www.kcbs.us/event/6492/knights-of-columbus-bbq-smoke-off
p207
aVhttp://www.kcbs.us/event/6105/smoke-out-in-the-valley
p208
aVhttp://www.kcbs.us/event/6401/smokin-hot-backyard-bbq-contest-backyard-contest
p209
aVhttp://www.kcbs.us/event/6028/heritage-days-bbq-showdown
p210
aVhttp://www.kcbs.us/event/5950/smokin-on-the-pecos
p211
aVhttp://www.kcbs.us/event/5972/leadville-bbq-and-brew-festival
p212
aVhttp://www.kcbs.us/event/6011/hog-wild-bbq-festival
p213
aVhttp://www.kcbs.us/event/6095/big-bbq-bash
p214
aVhttp://www.kcbs.us/event/6104/great-lenexa-bbq-battle-kansas-state-championship
p215
aVhttp://www.kcbs.us/event/6106/8th-annual-auburn-hills-barbecue-cookoff
p216
aVhttp://www.kcbs.us/event/6131/silicon-valley-barbeque-championships
p217
aVhttp://www.kcbs.us/event/6250/newport-beach-barbecue-competition
p218
aVhttp://www.kcbs.us/event/6344/crossroads-bbq-cook-off-backyard-contest
p219
aVhttp://www.kcbs.us/event/6360/sams-club-national-bbq-tour
p220
aVhttp://www.kcbs.us/event/6393/covington-cork-pork-festival
p221
aVhttp://www.kcbs.us/event/6457/smoke-on-the-waterfall
p222
aVhttp://www.kcbs.us/event/6480/smoke-on-the-square-in-memory-of-david-harness
p223
aVhttp://www.kcbs.us/event/6497/freedom-feast-bbq-cook-off
p224
aVhttp://www.kcbs.us/event/6572/ribfest-backyard
p225
aVhttp://www.kcbs.us/event/6614/assumption-fest-smokin-hot-bbq-contest
p226
aVhttp://www.kcbs.us/event/6154/giant-national-capital-barbecue-battle
p227
aVhttp://www.kcbs.us/event/6161/mr-bbq-barbeque-challengecancelled
p228
aVhttp://www.kcbs.us/event/6180/green-mountain-bbq-championship
p229
aVhttp://www.kcbs.us/event/6289/montana-bbq-cook-off
p230
aVhttp://www.kcbs.us/event/6404/the-2nd-annual-greenport-harbor-beer-bbq-blues-cancelled
p231
aVhttp://www.kcbs.us/event/6432/rotary-rock-n-ribs-backyard
p232
aVhttp://www.kcbs.us/event/5987/back-to-mayberry-bbq
p233
aVhttp://www.kcbs.us/event/6315/hutchfest-bbq-cook-off
p234
aVhttp://www.kcbs.us/event/6348/grillin-in-grafton
p235
aVhttp://www.kcbs.us/event/6361/sams-club-national-bbq-tour-regional
p236
aVhttp://www.kcbs.us/event/6583/fire-on-the-mountain
p237
aVhttp://www.kcbs.us/event/6585/patriotism-in-the-park--bbq-contest-backyard
p238
aVhttp://www.kcbs.us/event/6057/i-love-barbecue-music-festival
p239
aVhttp://www.kcbs.us/event/6188/13th-annual-pork-brew-bbq-state-championship
p240
aVhttp://www.kcbs.us/event/6307/made-in-new-york-festival-bbq-cook-off-competitors-series-cancelled
p241
aVhttp://www.kcbs.us/event/6445/hot-pursuit-bbq
p242
aVhttp://www.kcbs.us/event/6527/liberty4thfest-barbecue-contestcancelled
p243
aVhttp://www.kcbs.us/event/5986/sc-festival-of-discovery
p244
aVhttp://www.kcbs.us/event/6016/buttes-boots-n-bbq-cancelled
p245
aVhttp://www.kcbs.us/event/6026/15th-annual-bordertown-bash
p246
aVhttp://www.kcbs.us/event/6081/new-jersey-state-barbecue-championship
p247
aVhttp://www.kcbs.us/event/6089/cumberland-plateau-bbq-cook-off-and-cruise-in
p248
aVhttp://www.kcbs.us/event/6196/chillin-grillin-in-the-glades
p249
aVhttp://www.kcbs.us/event/6213/gold-ribbin-bbq-fest-of-greater-green-bay-1st-heat
p250
aVhttp://www.kcbs.us/event/6236/johnson-county-fair-bbq-challenge
p251
aVhttp://www.kcbs.us/event/6242/wine-country-big-q-competition-and-festival
p252
aVhttp://www.kcbs.us/event/6292/9th-annual-wellsville-bbq-cookoff
p253
aVhttp://www.kcbs.us/event/6293/ohio-veterans-barbecue-cook-off
p254
aVhttp://www.kcbs.us/event/6369/sams-club-national-bbq-tour
p255
aVhttp://www.kcbs.us/event/6640/basspro-shops-bbq-blitz-cancelled
p256
aVhttp://www.kcbs.us/event/6200/gold-ribbin-bbq-fest-of-greater-green-bay-2nd-heat
p257
aVhttp://www.kcbs.us/event/6072/grillers-cup
p258
aVhttp://www.kcbs.us/event/6090/del-mar-bbq-championship
p259
aVhttp://www.kcbs.us/event/6111/cookin-on-kampeska
p260
aVhttp://www.kcbs.us/event/6182/bbqloo-blues-too
p261
aVhttp://www.kcbs.us/event/6204/wolf-creek-wildblue-bbq
p262
aVhttp://www.kcbs.us/event/6272/smoke-on-the-mountainva-state-bbq-championship
p263
aVhttp://www.kcbs.us/event/6316/winebrew-bar-b-que-too
p264
aVhttp://www.kcbs.us/event/6370/sams-club-national-bbq-tour
p265
aVhttp://www.kcbs.us/event/6433/riverfest-red-white-and-que
p266
aVhttp://www.kcbs.us/event/6571/ribs-on-the-rivercancelled
p267
aVhttp://www.kcbs.us/event/6542/winebrew-bar-b-que-too-day-2
p268
aVhttp://www.kcbs.us/event/6546/smokin-at-the-ballpark-bbq-fest
p269
aVhttp://www.kcbs.us/event/6006/effingham-jam
p270
aVhttp://www.kcbs.us/event/6059/arvada-on-tap-a-craft-beer-and-bbq-fest
p271
aVhttp://www.kcbs.us/event/6143/up-in-smoke-bbq-bash
p272
aVhttp://www.kcbs.us/event/6224/central-illinois-bbq-throwdown-formerly-morton-bbq-throwdown
p273
aVhttp://www.kcbs.us/event/6245/wnc-bbq-festival-
p274
aVhttp://www.kcbs.us/event/6271/bbq-fest-cooking-contest
p275
aVhttp://www.kcbs.us/event/6345/rotary-club-of-wakefield-rhode-island
p276
aVhttp://www.kcbs.us/event/6371/sams-club-national-bbq-tour
p277
aVhttp://www.kcbs.us/event/6569/smoking-in-the-woods
p278
aVhttp://www.kcbs.us/event/6570/the-kansas-smithfield-guinea-pig
p279
aVhttp://www.kcbs.us/event/6599/southern-tier-brew-bbq-festivalcancelled
p280
aVhttp://www.kcbs.us/event/6349/the-harpoon-brewery-bbq-festival
p281
aVhttp://www.kcbs.us/event/6069/the-dodge-city-days-smokin-saddles-bbq-contest
p282
aVhttp://www.kcbs.us/event/6129/cotton-pickin-bbq-cook-off
p283
aVhttp://www.kcbs.us/event/6183/8th-annual-vista-bbq-classic
p284
aVhttp://www.kcbs.us/event/6273/smokin-hot-cars-bbq
p285
aVhttp://www.kcbs.us/event/6283/sanluis-valley-beat-the-heat-brew-bbq-chili-challenge
p286
aVhttp://www.kcbs.us/event/6372/sams-club-national-bbq-tour
p287
aVhttp://www.kcbs.us/event/6418/racing-for-the-bbq
p288
aVhttp://www.kcbs.us/event/6425/bluesbrews-barbecue
p289
aVhttp://www.kcbs.us/event/6533/great-northern-bbqcancelled
p290
aVhttp://www.kcbs.us/event/6554/2016-gilroy-garli-que-bbq-challenge
p291
aVhttp://www.kcbs.us/event/6573/birdies-barnyard-bbq
p292
aVhttp://www.kcbs.us/event/6606/smoke-on-the-shrine-lake-bluesgrass-festival
p293
aVhttp://www.kcbs.us/event/6647/the-great-adirondack-bbq-festival
p294
aVhttp://www.kcbs.us/event/6142/laurie-hillbilly-bbq
p295
aVhttp://www.kcbs.us/event/6151/ribs-pigs-watermelons
p296
aVhttp://www.kcbs.us/event/6168/pigs-pedals
p297
aVhttp://www.kcbs.us/event/6256/2016-clayton-rib-cook-off-competitor-series
p298
aVhttp://www.kcbs.us/event/6300/rossville-tall-corn-festival-bbq-contest
p299
aVhttp://www.kcbs.us/event/6387/sams-club-national-bbq-tour
p300
aVhttp://www.kcbs.us/event/6406/dillard-bluegrass-barbeque-festival-gbc-qualifier
p301
aVhttp://www.kcbs.us/event/6434/24th-annual-state-bbq-championship-of-nebraska
p302
aVhttp://www.kcbs.us/event/6438/holy-smokes-bbq-competition
p303
aVhttp://www.kcbs.us/event/6536/pit-at-the-park
p304
aVhttp://www.kcbs.us/event/6577/badger-brew-que-i-day-1
p305
aVhttp://www.kcbs.us/event/6626/all-american-bbq-throwdown
p306
aVhttp://www.kcbs.us/event/6637/smokin-at-the-maplescancelled
p307
aVhttp://www.kcbs.us/event/6578/badger-brew-que-ii-day-2
p308
aVhttp://www.kcbs.us/event/6023/lake-minnetonka-bbq-beer-fest-teams-spots-full
p309
aVhttp://www.kcbs.us/event/6097/maryland-state-bbq-bash
p310
aVhttp://www.kcbs.us/event/6158/smokin-in-mcminnville
p311
aVhttp://www.kcbs.us/event/6246/mountain-high-bbq-festival-car-show
p312
aVhttp://www.kcbs.us/event/6281/casas-grab-root-and-growl-bbq
p313
aVhttp://www.kcbs.us/event/6284/best-of-the-west
p314
aVhttp://www.kcbs.us/event/6388/sams-club-national-bbq-tour
p315
aVhttp://www.kcbs.us/event/6420/salamanca-rockin-ribfest
p316
aVhttp://www.kcbs.us/event/6423/smokin-trackside-bbq-brew-bash
p317
aVhttp://www.kcbs.us/event/6563/atlanta-bar-b-q-festival
p318
aVhttp://www.kcbs.us/event/6604/holy-smoke-bbq-competition
p319
aVhttp://www.kcbs.us/event/6616/all-fired-upcancelled
p320
aVhttp://www.kcbs.us/event/6479/new-londons-best-bbq-chef-competiton
p321
aVhttp://www.kcbs.us/event/6579/valley-music-fest-bbq-cookoff
p322
aVhttp://www.kcbs.us/event/5716/stokin-the-fire-bbq-festival-backyard-onlycancelled
p323
aVhttp://www.kcbs.us/event/6010/pepsi-wy-state-championship-bbq-bluegrass-festival
p324
aVhttp://www.kcbs.us/event/6177/flint-hills-beef-fest-bbq
p325
aVhttp://www.kcbs.us/event/6216/smsu-smokefest
p326
aVhttp://www.kcbs.us/event/6222/stand-by-your-grill
p327
aVhttp://www.kcbs.us/event/6238/madison-ribberfest-bbq-blues-festisval
p328
aVhttp://www.kcbs.us/event/6239/4th-annual-best-bbq-in-town-long-beach-bbq-festival
p329
aVhttp://www.kcbs.us/event/6303/classic-city-bbq-fest-gbc-qualifier
p330
aVhttp://www.kcbs.us/event/6311/hudson-valley-ribfest
p331
aVhttp://www.kcbs.us/event/6331/oaktown-throwdown-bbq
p332
aVhttp://www.kcbs.us/event/6389/sams-club-national-bbq-tour
p333
aVhttp://www.kcbs.us/event/6539/cape-jaycees-bbq-fest
p334
aVhttp://www.kcbs.us/event/6541/bbq-and-fly-in-on-the-river
p335
aVhttp://www.kcbs.us/event/6237/illinois-bbq-fest-at-hillcrest-event-center
p336
aVhttp://www.kcbs.us/event/6495/kc-kosher-bbq-championship-competitors-series
p337
aVhttp://www.kcbs.us/event/6674/pilgrims-2nd-annual-cook-offbackyard
p338
aVhttp://www.kcbs.us/event/5994/9th-annual-big-island-bbq
p339
aVhttp://www.kcbs.us/event/6017/5th-annual-deaths-door-barbeque
p340
aVhttp://www.kcbs.us/event/6035/bbq-on-the-bricks
p341
aVhttp://www.kcbs.us/event/6056/new-holland-summer-fest
p342
aVhttp://www.kcbs.us/event/6153/smokin-on-oak
p343
aVhttp://www.kcbs.us/event/6167/the-great-catskill-mountain-bbq-fest
p344
aVhttp://www.kcbs.us/event/6197/hill-city-wine-brew-bbq
p345
aVhttp://www.kcbs.us/event/6202/grill-games
p346
aVhttp://www.kcbs.us/event/6215/smoke-in-the-valley
p347
aVhttp://www.kcbs.us/event/6254/raider-red-meats-bbq-ribeye-championship
p348
aVhttp://www.kcbs.us/event/6304/pigs-and-peaches-bbq-festival-gbc-qualifier
p349
aVhttp://www.kcbs.us/event/6321/ribstock
p350
aVhttp://www.kcbs.us/event/6350/grills-n-grillespresented-by-the-united-way-of-nevada-country
p351
aVhttp://www.kcbs.us/event/6390/sams-club-national-bbq-tour-regional
p352
aVhttp://www.kcbs.us/event/6410/east-central-state-bbq-cook-off-paola-roots-festival
p353
aVhttp://www.kcbs.us/event/6456/shriners-smoke-on-the-ohiocancelled
p354
aVhttp://www.kcbs.us/event/6530/franklin-bbq-festival-presented-by-franklin-noon-rotary-club
p355
aVhttp://www.kcbs.us/event/6562/wild-west-bbq-shoot-out
p356
aVhttp://www.kcbs.us/event/6568/smoke-on-the-river-bands-brews-bbq-backyard
p357
aVhttp://www.kcbs.us/event/6605/oak-grove-bbq-and-lemonadecancelled
p358
aVhttp://www.kcbs.us/event/6607/boydtons-big-bad-bbq
p359
aVhttp://www.kcbs.us/event/6641/downtown-bbq-showdownbackyard-only
p360
aVhttp://www.kcbs.us/event/6165/6th-annual-smokin-in-the-bogs
p361
aVhttp://www.kcbs.us/event/6179/rockin-apples-festival
p362
aVhttp://www.kcbs.us/event/6243/smokin-brew-bbq-cancelled
p363
aVhttp://www.kcbs.us/event/6373/sams-club-national-bbq-tour
p364
aVhttp://www.kcbs.us/event/6450/low-country-hog-fest
p365
aVhttp://www.kcbs.us/event/6451/homecoming-2016
p366
aVhttp://www.kcbs.us/event/6679/beach-boogie-bbq-festival
p367
aVhttp://www.kcbs.us/event/6004/finger-lakes-fire-smoke
p368
aVhttp://www.kcbs.us/event/6191/bears-smokehouse-new-england-bbq-championship-cancelled
p369
aVhttp://www.kcbs.us/event/6258/big-muddy-brew-n-quecompetitors-series
p370
aVhttp://www.kcbs.us/event/6277/city-of-bedford-blues-bbq-festival
p371
aVhttp://www.kcbs.us/event/6516/septemberfest-bbq-rib-eye-steak-cookoff-challenge
p372
aVhttp://www.kcbs.us/event/6698/bluesviewand-bbq-cooking-for-a-causecompetitors-series
p373
aVhttp://www.kcbs.us/event/5882/nostrano-garlic-festival-presents-great-maine-bbq-challenge-at-smugglers-den-campground
p374
aVhttp://www.kcbs.us/event/6018/12th-annual-recovery-fest7th-annual-bbq-state-championship
p375
aVhttp://www.kcbs.us/event/6073/puckaway-pigfest
p376
aVhttp://www.kcbs.us/event/6099/ribs-rods-and-rockn-roll
p377
aVhttp://www.kcbs.us/event/6160/fiddle-n-pig-shindig-cancelled
p378
aVhttp://www.kcbs.us/event/6205/colorado-pork-hops-challenge
p379
aVhttp://www.kcbs.us/event/6260/independence-fire-ice-bbq
p380
aVhttp://www.kcbs.us/event/6310/the-tony-stone-cookeville-cookoff
p381
aVhttp://www.kcbs.us/event/6327/derby-bbq-festival
p382
aVhttp://www.kcbs.us/event/6330/decatur-jaycees-22nd-annual-riverfest
p383
aVhttp://www.kcbs.us/event/6334/beak-week-bbq-challenge
p384
aVhttp://www.kcbs.us/event/6367/sams-club-national-bbq-tour
p385
aVhttp://www.kcbs.us/event/6392/international-goat-days-championship-bbq
p386
aVhttp://www.kcbs.us/event/6448/balloons-blues-bbq
p387
aVhttp://www.kcbs.us/event/6581/philadelphias-inaugural-fire-up-hope
p388
aVhttp://www.kcbs.us/event/6598/burger-battle-at-the-viewcompetitors-seriescancelled
p389
aVhttp://www.kcbs.us/event/6646/st-louis-1st-annual-kosher-bbq-cookoff-competitors-series
p390
aVhttp://www.kcbs.us/event/6034/tilley-harley-davidson-biker-blues-bbq-rally-and-bbq-classic
p391
aVhttp://www.kcbs.us/event/6078/gills-grills-bass-and-bbq-festivalcancelled
p392
aVhttp://www.kcbs.us/event/6103/jesse-james-barbeque-cook-out
p393
aVhttp://www.kcbs.us/event/6146/bands-bbq-at-the-point
p394
aVhttp://www.kcbs.us/event/6231/rockn-ribville-gbc-qualifier
p395
aVhttp://www.kcbs.us/event/6249/tri-city-bbq-fest
p396
aVhttp://www.kcbs.us/event/6278/taste-of-autumn-bbq-championshipcancelled
p397
aVhttp://www.kcbs.us/event/6333/richland-pig-festcancelled
p398
aVhttp://www.kcbs.us/event/6375/sams-club-national-bbq-tour-regional
p399
aVhttp://www.kcbs.us/event/6405/nebo-fall-festival-and-bbq-competition
p400
aVhttp://www.kcbs.us/event/6428/ktd-smokin-gobbler-cook-off
p401
aVhttp://www.kcbs.us/event/6449/butler-chambers-barbeque-hucksters-day
p402
aVhttp://www.kcbs.us/event/6493/cherokee-strip-bbq-cook-off
p403
aVhttp://www.kcbs.us/event/6517/2nd-annual-hot-qs-cold-brews-bbq-championship
p404
aVhttp://www.kcbs.us/event/6559/battle-of-the-brisket
p405
aVhttp://www.kcbs.us/event/6584/rockn-brews-bbq-festival
p406
aVhttp://www.kcbs.us/event/6631/currituck-heritage-festival
p407
aVhttp://www.kcbs.us/event/6702/smoke-on-the-water-arkansas-state-barbecue-championship
p408
aVhttp://www.kcbs.us/event/6162/table-rock-boats-and-bones
p409
aVhttp://www.kcbs.us/event/6251/que-by-the-sea
p410
aVhttp://www.kcbs.us/event/6398/mazomanie-bbq-fest
p411
aVhttp://www.kcbs.us/event/5925/smokin-butts-tires-gbc-qualifier
p412
aVhttp://www.kcbs.us/event/6033/murphysboro-bbq-cookoff
p413
aVhttp://www.kcbs.us/event/6052/jim-bowie-bbq-throwdowncancelled
p414
aVhttp://www.kcbs.us/event/6065/shawnee-great-grillers-state-championship
p415
aVhttp://www.kcbs.us/event/6127/bryants-buzzin-bbq-bash
p416
aVhttp://www.kcbs.us/event/6155/porktober-que
p417
aVhttp://www.kcbs.us/event/6178/smoking-in-the-golden-valley
p418
aVhttp://www.kcbs.us/event/6275/carnivores-classic
p419
aVhttp://www.kcbs.us/event/6280/butts-and-beans-bbq-challenge
p420
aVhttp://www.kcbs.us/event/6291/smoke-in-the-park
p421
aVhttp://www.kcbs.us/event/6306/bikes-blues-and-bbq
p422
aVhttp://www.kcbs.us/event/6312/brew-barbecue-oysters-too
p423
aVhttp://www.kcbs.us/event/6314/jammin-in-jc-bbq-contest
p424
aVhttp://www.kcbs.us/event/6329/ointoberfest-bbq-cookoff
p425
aVhttp://www.kcbs.us/event/6368/sams-club-national-bbq-tour-regional
p426
aVhttp://www.kcbs.us/event/6394/grillin-and-chillin
p427
aVhttp://www.kcbs.us/event/6396/marshall-county-blazinbbq-bluegrasscancelled
p428
aVhttp://www.kcbs.us/event/6651/q-in-the-loucancelled
p429
aVhttp://www.kcbs.us/event/6670/bb-brew-for-hope-competitors-series
p430
aVhttp://www.kcbs.us/event/6309/red-white-and-que
p431
aVhttp://www.kcbs.us/event/6391/barbeque-on-the-hill-competitors-series
p432
aVhttp://www.kcbs.us/event/6552/first-tennessee-bank-muletown-bbq-cook-off-backyard
p433
aVhttp://www.kcbs.us/event/6474/ointoberfest-bbq-cookoff-competitors-only
p434
aVhttp://www.kcbs.us/event/6212/hog-wild-bbq-festival
p435
aVhttp://www.kcbs.us/event/5983/que-cruz
p436
aVhttp://www.kcbs.us/event/6051/jim-beam-bbq-classic
p437
aVhttp://www.kcbs.us/event/6288/roast-n-boast-bbq
p438
aVhttp://www.kcbs.us/event/6305/3rd-annual-smokin-in-sapulpa
p439
aVhttp://www.kcbs.us/event/6518/squealin-on-the-square
p440
aVhttp://www.kcbs.us/event/6643/smoke-on-the-water-guntersville-backyard-only
p441
aVhttp://www.kcbs.us/event/6645/downtown-jonesboro-bbq-festival
p442
aVhttp://www.kcbs.us/event/6656/sams-club-national-bbq-tour-championship
p443
aVhttp://www.kcbs.us/event/6087/bliss-brews-que
p444
aVhttp://www.kcbs.us/event/6098/the-real-squeal-bbq-music-festival-gbc-qualifier
p445
aVhttp://www.kcbs.us/event/6110/riverside-blues-brews-bbq-festival
p446
aVhttp://www.kcbs.us/event/6203/bacon-brew-que
p447
aVhttp://www.kcbs.us/event/6210/eastern-carolina-bbq-throw-downcancelled
p448
aVhttp://www.kcbs.us/event/6220/keystone-classic-bbq-state-championship
p449
aVhttp://www.kcbs.us/event/6233/dana-point-state-bbq-championship
p450
aVhttp://www.kcbs.us/event/6325/go-hog-wild-arkansas-bbq-championship
p451
aVhttp://www.kcbs.us/event/6395/grillin-chillin-bbq-cook-off
p452
aVhttp://www.kcbs.us/event/6466/river-grill-before-the-big-chill-cancelled
p453
aVhttp://www.kcbs.us/event/6528/bbq-blues-on-the-levee
p454
aVhttp://www.kcbs.us/event/6618/cookin-on-the-kaw
p455
aVhttp://www.kcbs.us/event/6650/downtown-bbq-throwdown
p456
aVhttp://www.kcbs.us/event/6665/pig-mania-marion
p457
aVhttp://www.kcbs.us/event/6326/glendive-chambers-of-commerce-bbq-in-the-badlandsbackyard
p458
aVhttp://www.kcbs.us/event/6453/smoke-on-the-water-barbecue-championship
p459
aVhttp://www.kcbs.us/event/6484/i-grill-because-i-care-competitors-seriescancelled
p460
aVhttp://www.kcbs.us/event/6716/leavenworth-break-out-bbq
p461
aVhttp://www.kcbs.us/event/6560/holmes-drywall-bbq-cookoff-invitational-competitors-series
p462
aVhttp://www.kcbs.us/event/6062/smoking-in-the-foothills
p463
aVhttp://www.kcbs.us/event/6086/big-buffalo-crossing-bbq-cookoff
p464
aVhttp://www.kcbs.us/event/6214/11th-annual-lambs-farm-barn-burner-bar-bqcancelled
p465
aVhttp://www.kcbs.us/event/6217/mid-south-bbq-festival
p466
aVhttp://www.kcbs.us/event/6218/balloons-blues-and-barbeque
p467
aVhttp://www.kcbs.us/event/6221/smoke-on-the-river
p468
aVhttp://www.kcbs.us/event/6228/harper-county-bullseye-bbq
p469
aVhttp://www.kcbs.us/event/6234/anchor-city-cook-off
p470
aVhttp://www.kcbs.us/event/6328/ohio-smoked-meat-bbq-festival
p471
aVhttp://www.kcbs.us/event/6465/shenandoah-valley-bbq-fest
p472
aVhttp://www.kcbs.us/event/6519/cef-good-news-bbq-festivalcancelled0
p473
aVhttp://www.kcbs.us/event/6547/cibr-bbq-central-illinois-bragging-right-bbq
p474
aVhttp://www.kcbs.us/event/6080/border-war-barbeque
p475
aVhttp://www.kcbs.us/event/6181/hillbilly-hog-bbq-throwdown-fall-festival-cancelled
p476
aVhttp://www.kcbs.us/event/6252/smokin-the-fort-bbq-bluegrass-festival
p477
aVhttp://www.kcbs.us/event/6590/best-of-the-midwest-bbq-cook-off
p478
aVhttp://www.kcbs.us/event/6597/boo-b-que
p479
aVhttp://www.kcbs.us/event/6632/san-francisco-bbq-festival-bbq-competition
p480
aVhttp://www.kcbs.us/event/6699/2016-greenbriar-blaze-off-and-senior-q
p481
aVhttp://www.kcbs.us/event/6722/jack-daniels-world-championship-invitation-barbecue-judges-by-invitation-only
p482
aVhttp://www.kcbs.us/event/6723/jack-daniels-world-championship-shade-tree-contest-backyard
p483
aVhttp://www.kcbs.us/event/6644/usa-barbecue-championship
p484
aVhttp://www.kcbs.us/event/6060/dickson-county-smoke-fest
p485
aVhttp://www.kcbs.us/event/6268/commander-brew-n-quecancelled
p486
aVhttp://www.kcbs.us/event/6411/smoke-n-thunder-bbq-classiccomp-1-gbc-qualifiercancelled
p487
aVhttp://www.kcbs.us/event/6648/37th-annual-american-royal-world-series-of-barbecueinvitational
p488
aVhttp://www.kcbs.us/event/6663/rock-springs-bbq-bashcancelled
p489
aVhttp://www.kcbs.us/event/6412/smoke-n-thunder-bbq-classiccomp-2-gbc-qualifiercancelled
p490
aVhttp://www.kcbs.us/event/6481/second-annual-dallas-kosher-bbq-championship-competitors-series
p491
aVhttp://www.kcbs.us/event/6649/37th-annual-american-royal-world-series-of-barbecueopen
p492
aVhttp://www.kcbs.us/event/6286/hog-happnin
p493
aVhttp://www.kcbs.us/event/6532/roarin-lions-smokin-bbq-gbc-qualifier
p494
aVhttp://www.kcbs.us/event/6675/world-bbq-festival
p495
aVhttp://www.kcbs.us/event/6301/indio-california-state-bbq-championship-festival-judges-full
p496
aVhttp://www.kcbs.us/event/6308/smoke-on-the-harbor-bbq-throwdown
p497
aVhttp://www.kcbs.us/event/6591/world-barbecue-championship
p498
aVhttp://www.kcbs.us/event/6676/town-of-mt-pleasant-fall-festival-first-annual-polar-pig-cook-off
p499
aVhttp://www.kcbs.us/event/6748/2nd-annual-brew-b-q
p500
aVhttp://www.kcbs.us/event/6553/six-flags-great-adventure-thrillin-grillin-bbq-competitioncancelled
p501
aVhttp://www.kcbs.us/event/6421/bar-b-cure
p502
aVhttp://www.kcbs.us/event/6470/quen-in-cumming-day-1
p503
aVhttp://www.kcbs.us/event/6548/plant-city-pig-jam
p504
aVhttp://www.kcbs.us/event/6671/mission-q-backyard
p505
aVhttp://www.kcbs.us/event/6764/al-bahr-shrine-blues-brews-bbqs-cancelled
p506
aVhttp://www.kcbs.us/event/6735/quen-in-cumming-day-2
p507
aVhttp://www.kcbs.us/event/6638/christmas-on-the-river
p508
aVhttp://www.kcbs.us/event/6662/when-pigs-fly-south
p509
aVhttp://www.kcbs.us/event/6742/the-smithfield-king-of-the-smokerinvitationaljudges-full
p510
aVhttp://www.kcbs.us/event/6694/down-town-throw-down-barbecue-championships
p511
asI2017
(lp512
Vhttp://www.kcbs.us/event/6744/national-western-bbq-throwdown
p513
aVhttp://www.kcbs.us/event/6923/1st-annual-collard-green-festivalbackyard
p514
aVhttp://www.kcbs.us/event/6666/slab-o-rama-barbeque-challenge
p515
aVhttp://www.kcbs.us/event/6703/newport-beach-winter-q
p516
aVhttp://www.kcbs.us/event/6833/outwest-food-fest-bbq-competiton
p517
aVhttp://www.kcbs.us/event/6863/lakeland-pig-festival
p518
aVhttp://www.kcbs.us/event/6630/humble-rodeo-bbq-wfc-qualifier
p519
aVhttp://www.kcbs.us/event/6793/brasstown-valley-resort-bbq-throwdownteams-judges-full
p520
aVhttp://www.kcbs.us/event/6596/shotgun-fred-bbq-showdownjudges-full
p521
aVhttp://www.kcbs.us/event/6749/downtown-bbq-throwdown
p522
aVhttp://www.kcbs.us/event/7083/the-smithfield-guinea-pig
p523
aVhttp://www.kcbs.us/event/6726/bud-bbq-judging-is-full
p524
aVhttp://www.kcbs.us/event/7096/sams-club-national-bbq-tour
p525
aVhttp://www.kcbs.us/event/6756/the-great-brunswick-bbq-throwdown
p526
aVhttp://www.kcbs.us/event/6785/sip-swine-bbq-festival
p527
aVhttp://www.kcbs.us/event/6869/bodagetta-bbq
p528
aVhttp://www.kcbs.us/event/7095/fire-on-ice-barbecue-world-championship
p529
aVhttp://www.kcbs.us/event/7102/sams-club-national-bbq-tour
p530
aVhttp://www.kcbs.us/event/7269/big-12-big-q-competitors-series
p531
aVhttp://www.kcbs.us/event/6619/smoke-on-the-shores
p532
aVhttp://www.kcbs.us/event/6682/flames-on-the-flint
p533
aVhttp://www.kcbs.us/event/7089/kansas-winter-q-and-chest-to-chest-national-cook-off
p534
aVhttp://www.kcbs.us/event/7103/sams-club-national-bbq-tour
p535
aVhttp://www.kcbs.us/event/6620/smokin-in-the-square
p536
aVhttp://www.kcbs.us/event/6740/tupelo-bbq-duel--comp-1
p537
aVhttp://www.kcbs.us/event/6891/corums-building-center-bbq-backyardteams-full
p538
aVhttp://www.kcbs.us/event/7115/sams-club-national-bbq-tour
p539
aVhttp://www.kcbs.us/event/6741/tupelo-bbq-duel--comp-2
p540
aVhttp://www.kcbs.us/event/6615/13th-annual-triple-b-festival-blackwater-bbq-bands
p541
aVhttp://www.kcbs.us/event/6680/bbq-gives-back
p542
aVhttp://www.kcbs.us/event/6708/firelake-bbq-cook-off-day-1
p543
aVhttp://www.kcbs.us/event/7116/sams-club-national-bbq-tour
p544
aVhttp://www.kcbs.us/event/7180/smoked-sauced-a-bbq-for-badges
p545
aVhttp://www.kcbs.us/event/7183/hammond-bbq
p546
aVhttp://www.kcbs.us/event/6709/firelake-bbq-cook-offday-2
p547
aVhttp://www.kcbs.us/event/6720/blues-hog-bbq-music-fest
p548
aVhttp://www.kcbs.us/event/6761/cedar-fest-bbq-cook-off
p549
aVhttp://www.kcbs.us/event/6856/stillwater-elks-lodge-blazathon
p550
aVhttp://www.kcbs.us/event/7015/6th-annual-santa-anita-winners-circle-bbq-championship
p551
aVhttp://www.kcbs.us/event/7042/the-ironman
p552
aVhttp://www.kcbs.us/event/7050/smokin-on-big-creek-bbq-contest-benefiting-operation-bbq-reliefteams-and-judges-full
p553
aVhttp://www.kcbs.us/event/7117/sams-club-national-bbq-tour
p554
aVhttp://www.kcbs.us/event/7149/jack-town-throw-down
p555
aVhttp://www.kcbs.us/event/7168/the-carolina-grand-bbq-contestcancelled
p556
aVhttp://www.kcbs.us/event/6829/smoke-on-the-border-gravette-chambers-of-commerce
p557
aVhttp://www.kcbs.us/event/6627/chillin-n-grillin-bbq-festival
p558
aVhttp://www.kcbs.us/event/6634/brunskwick-bbq-beach-bashgbc-qualifier
p559
aVhttp://www.kcbs.us/event/6719/first-annual-operation-stand-down-ky-bbq-smoke-offteams-full
p560
aVhttp://www.kcbs.us/event/6751/ccs-fest
p561
aVhttp://www.kcbs.us/event/6762/a-que-of-their-owncancelled
p562
aVhttp://www.kcbs.us/event/6772/smoke-in-the-spring-wfc-quilfyer
p563
aVhttp://www.kcbs.us/event/6797/the-best-damn-bbq-contest-at-smithville-lake
p564
aVhttp://www.kcbs.us/event/6820/seventh-annual-bull-moose
p565
aVhttp://www.kcbs.us/event/6837/nyc-bbq-cookoff
p566
aVhttp://www.kcbs.us/event/6982/smoke-on-the-falls
p567
aVhttp://www.kcbs.us/event/7118/sams-club-national-bbq-tour
p568
aVhttp://www.kcbs.us/event/7198/boss-frogs-bbq
p569
aVhttp://www.kcbs.us/event/6866/interstate-bbq-festival
p570
aVhttp://www.kcbs.us/event/6955/grilln-n-chilln-memorial-backyard-only
p571
aVhttp://www.kcbs.us/event/6972/21st-annual-fire-house-bbq-cook-off
p572
aVhttp://www.kcbs.us/event/7119/sams-club-national-bbq-tour
p573
aVhttp://www.kcbs.us/event/7182/2017-smokin-in-the-forest
p574
aVhttp://www.kcbs.us/event/6635/cornelia-apple-blossom-competition
p575
aVhttp://www.kcbs.us/event/6655/roberts-ranch-smokin-red-dirt-bbq
p576
aVhttp://www.kcbs.us/event/6660/barnesville-bbq-blues
p577
aVhttp://www.kcbs.us/event/6684/smokin-on-the-baycancelled
p578
aVhttp://www.kcbs.us/event/6739/rockn-n-ribs-bbq-festival
p579
aVhttp://www.kcbs.us/event/6783/high-on-the-hog-festival
p580
aVhttp://www.kcbs.us/event/6804/main-street-bbq-blues-fest
p581
aVhttp://www.kcbs.us/event/6954/9th-annual-vfw-post-846-bbq-challenge
p582
aVhttp://www.kcbs.us/event/7120/sams-club-national-bbq-tour-regional
p583
aVhttp://www.kcbs.us/event/6728/fire-at-the-foothills-bbq-chili-cook-offbackyard-only
p584
aVhttp://www.kcbs.us/event/6942/atlanta-bbq-classic-at-atlanta-motor-speedway
p585
aVhttp://www.kcbs.us/event/7005/southern-hotwing-festival-competitor-series
p586
aVhttp://www.kcbs.us/event/6681/wabash-ribberfest-bbq-championship-teams-and-judges-full
p587
aVhttp://www.kcbs.us/event/6721/bbq-boogie-bluesgbc-qualifier
p588
aVhttp://www.kcbs.us/event/6750/hog-wild-bbq-cookoff-and-family-festival
p589
aVhttp://www.kcbs.us/event/6757/southaven-springfest
p590
aVhttp://www.kcbs.us/event/6774/uptown-lexington-bbq-capital-cook-off
p591
aVhttp://www.kcbs.us/event/6819/smoke-on-the-water-backyard-only
p592
aVhttp://www.kcbs.us/event/6849/the-g-town-smokin-showdown
p593
aVhttp://www.kcbs.us/event/6868/the-great-wisconsin-tune-up-bbq-competition
p594
aVhttp://www.kcbs.us/event/6871/chisholm-trail-bbq-cook-off
p595
aVhttp://www.kcbs.us/event/6949/morris-twister-dayscancelled
p596
aVhttp://www.kcbs.us/event/7011/backyard-bbq-festival-brawl-backyard-only
p597
aVhttp://www.kcbs.us/event/7017/smokin-on-the-prairie-bbq-cook-off
p598
aVhttp://www.kcbs.us/event/7059/4th-annual-pickin-n-pullin-bbq-competition
p599
aVhttp://www.kcbs.us/event/7105/sams-club-national-bbq-tour
p600
aVhttp://www.kcbs.us/event/7194/central-iowa-expo-bbq-cruise-day-1
p601
aVhttp://www.kcbs.us/event/7259/smokin-in-the-ville
p602
aVhttp://www.kcbs.us/event/7195/central-iowa-expo-bbq-cruise-day-2
p603
aVhttp://www.kcbs.us/event/7221/pig-and-swig-kc-competitors-seriesjudges-full
p604
aVhttp://www.kcbs.us/event/6652/the-masters-in-may-also-big-green-egg-challenge
p605
aVhttp://www.kcbs.us/event/6669/bbq-in-the-valley
p606
aVhttp://www.kcbs.us/event/6803/jiggy-with-the-piggy
p607
aVhttp://www.kcbs.us/event/6813/the-whistlestop-festival-rocket-city-bbq
p608
aVhttp://www.kcbs.us/event/6847/smoke-on-the-water-day-1
p609
aVhttp://www.kcbs.us/event/6851/city-of-show-lows-5th-annual-bbq-throwdown
p610
aVhttp://www.kcbs.us/event/6874/bixby-bbqn-blues-festivaljudges-full
p611
aVhttp://www.kcbs.us/event/6905/apple-blossom-bar-b-q
p612
aVhttp://www.kcbs.us/event/6938/sertoma-48-bbqjudgesfull
p613
aVhttp://www.kcbs.us/event/7029/brew-blues-bar-b-q
p614
aVhttp://www.kcbs.us/event/7071/elk-grove-western-festival-and-bbq-championship
p615
aVhttp://www.kcbs.us/event/7086/naptown-barbayq-cooking-contest
p616
aVhttp://www.kcbs.us/event/7106/sams-club-national-bbq-tour
p617
aVhttp://www.kcbs.us/event/7131/colombia-elks-lodge-594-bbq-contest
p618
aVhttp://www.kcbs.us/event/7145/route-66-smoke-out
p619
aVhttp://www.kcbs.us/event/7212/36th-annual-kennett-jaycees
p620
aVhttp://www.kcbs.us/event/7224/umb-smokin-vault-competitors-invitational-series
p621
aVhttp://www.kcbs.us/event/6653/master-in-may-the-classic
p622
aVhttp://www.kcbs.us/event/6752/ridgefield-gone-country-bbq-festival
p623
aVhttp://www.kcbs.us/event/6848/smoke-on-the-water
p624
aVhttp://www.kcbs.us/event/6888/the-pearl-city-picnic-competitors-series
p625
aVhttp://www.kcbs.us/event/7072/elk-grove-western-festival-bbq-championship-backyard
p626
aVhttp://www.kcbs.us/event/7265/black-elk-brisket-burnout-competitors-series-invite-only
p627
aVhttp://www.kcbs.us/event/6697/bbq-in-the-bluffs
p628
aVhttp://www.kcbs.us/event/6790/fire-on-the-mountainbackyard
p629
aVhttp://www.kcbs.us/event/6870/boss-hog-state-championship-cook-off-gbc-qualifier
p630
aVhttp://www.kcbs.us/event/6915/roman-roast-on-the-river
p631
aVhttp://www.kcbs.us/event/6935/bbq-jamboree-day-1judges-full
p632
aVhttp://www.kcbs.us/event/6980/rockin-bbq
p633
aVhttp://www.kcbs.us/event/6998/minnesota-in-may
p634
aVhttp://www.kcbs.us/event/7087/bbq-jamboree--day-2judges-full
p635
aVhttp://www.kcbs.us/event/7097/sams-club-national-bbq-tour
p636
aVhttp://www.kcbs.us/event/7173/wild-west-bbq-cook-off
p637
aVhttp://www.kcbs.us/event/7176/west-coast-bbq-classic
p638
aVhttp://www.kcbs.us/event/6683/astops-bbq-4-astop
p639
aVhttp://www.kcbs.us/event/6700/22nd-annual-platte-city-bbq-cook-off-at-basswood-resort
p640
aVhttp://www.kcbs.us/event/6791/grand-lake-bbq-festival
p641
aVhttp://www.kcbs.us/event/6816/southern-smoke-bbq-championship
p642
aVhttp://www.kcbs.us/event/6946/bloomin-bbq-bluegrass
p643
aVhttp://www.kcbs.us/event/6983/6th-annual-valley-veterans-bbq-competition
p644
aVhttp://www.kcbs.us/event/7018/salt-city-bbq-festival
p645
aVhttp://www.kcbs.us/event/7058/boats-bands-bbq
p646
aVhttp://www.kcbs.us/event/7079/twin-valley-fire-and-smoke
p647
aVhttp://www.kcbs.us/event/7091/kings-of-q-bbq-cook-off-and-festival
p648
aVhttp://www.kcbs.us/event/7101/sams-club-national-bbq-tour
p649
aVhttp://www.kcbs.us/event/7128/chesapeake-jubilee-bbq-cook-off
p650
aVhttp://www.kcbs.us/event/7177/socal-bbq-bash-and-expojudges-full
p651
aVhttp://www.kcbs.us/event/7279/bbq-throw-down
p652
aVhttp://www.kcbs.us/event/7287/barber-q-battle-promaster-and-backyard
p653
aVhttp://www.kcbs.us/event/7288/downtown-bbq-showdownbackyard-only
p654
aVhttp://www.kcbs.us/event/6836/madison-magazine-bbq-festivalcancelled
p655
aVhttp://www.kcbs.us/event/6805/papa-joes-banjo-b-que-music-festival-gbc-qualifier
p656
aVhttp://www.kcbs.us/event/6817/car-blues-bbqcancelled
p657
aVhttp://www.kcbs.us/event/6875/the-wind-rider-music-bbq-festivalwfc-qualifier
p658
aVhttp://www.kcbs.us/event/6986/red-white-and-bar-b-q-day-1
p659
aVhttp://www.kcbs.us/event/7073/lewisburg-rotary-club-bbq-cookoffcancelled
p660
aVhttp://www.kcbs.us/event/7248/the-national-bbq-cup-day1cancelled
p661
aVhttp://www.kcbs.us/event/7276/the-national-bbq-cupday-2cancelled
p662
aVhttp://www.kcbs.us/event/7284/best-dam-bbq
p663
aVhttp://www.kcbs.us/event/7292/old-town-barbecue-throwdown
p664
aVhttp://www.kcbs.us/event/6887/bbq-blues-brews-on-the-bayjudges-full
p665
aVhttp://www.kcbs.us/event/6987/red-white-and-bar-b-q-day-2
p666
aVhttp://www.kcbs.us/event/7249/the-national-bbq-cup-backyard-championshipbackyard-onlycancelled
p667
aVhttp://www.kcbs.us/event/6738/original-sd-bbq-championships
p668
aVhttp://www.kcbs.us/event/6745/boots-and-bbq-festival
p669
aVhttp://www.kcbs.us/event/6780/smokin-in-steele
p670
aVhttp://www.kcbs.us/event/6784/mclouth-bbq-blowout-26th-anniversaryjudges-full
p671
aVhttp://www.kcbs.us/event/6854/musictree-festivalcancelled
p672
aVhttp://www.kcbs.us/event/6855/6th-annual-smokin-on-the-lake
p673
aVhttp://www.kcbs.us/event/6885/smokin-for-garrett
p674
aVhttp://www.kcbs.us/event/6913/kelley-wilson-bbq
p675
aVhttp://www.kcbs.us/event/6916/pigmaina-lima-state-championship-bbq-blues-festivalcancelled
p676
aVhttp://www.kcbs.us/event/6926/horse-town-brew-b-que-festival-judges-full
p677
aVhttp://www.kcbs.us/event/6960/piggin-in-the-parkpalmetto-bbq-series
p678
aVhttp://www.kcbs.us/event/6979/2nd-annual-elf-khurafeh-shrine-bbq-cancelled
p679
aVhttp://www.kcbs.us/event/6999/variety-childrens-charity-bbq-bash
p680
aVhttp://www.kcbs.us/event/7001/hog-happenin-bbq-bike-festcancelled
p681
aVhttp://www.kcbs.us/event/7041/up-in-smoke-on-the-square
p682
aVhttp://www.kcbs.us/event/7067/big-blue-bbq-championshipteam-full
p683
aVhttp://www.kcbs.us/event/7084/smokin-on-the-summit
p684
aVhttp://www.kcbs.us/event/7121/sams-club-national-bbq-tour
p685
aVhttp://www.kcbs.us/event/7178/que-for-the-troops
p686
aVhttp://www.kcbs.us/event/7243/conquer-the-grill
p687
aVhttp://www.kcbs.us/event/7055/sun-bbq-fest
p688
aVhttp://www.kcbs.us/event/7298/ribs-rocketscompetitor-seriesinvite-onlyjudgesfull
p689
aVhttp://www.kcbs.us/event/6664/8th-annual-poor-que
p690
aVhttp://www.kcbs.us/event/6696/elkmont-lions-club-smokin-railroad-st-bbq-cook-offbackyard-only
p691
aVhttp://www.kcbs.us/event/6711/beardstown-bluesbrews-barbecue
p692
aVhttp://www.kcbs.us/event/6755/marietta-river-city-bbq
p693
aVhttp://www.kcbs.us/event/6828/historic-new-castle-colonial-bbq-competition
p694
aVhttp://www.kcbs.us/event/6967/mocklahoma-ribs-roll-bbq-championship-day-1
p695
aVhttp://www.kcbs.us/event/6974/mocklahoma-ribs-roll-bbq-championship-day-2cancelled
p696
aVhttp://www.kcbs.us/event/7004/delta-smoke-bbq-contest
p697
aVhttp://www.kcbs.us/event/7019/california-honey-harvest-festival-bbq-championship
p698
aVhttp://www.kcbs.us/event/7026/blue-ridge-bbq-music-festivalcancelled
p699
aVhttp://www.kcbs.us/event/7069/mankato-cookout-day-1-and-backyard
p700
aVhttp://www.kcbs.us/event/7122/sams-club-national-bbq-tour
p701
aVhttp://www.kcbs.us/event/7214/smoke-out-hunger-bbq-challenge
p702
aVhttp://www.kcbs.us/event/7216/kentuckys-fort-harrod-beef-festival-grill-off-competitors-series
p703
aVhttp://www.kcbs.us/event/7230/reelin-n-smokin-backyard-barbecuebackyard-only
p704
aVhttp://www.kcbs.us/event/7273/buskers-brews-bbq
p705
aVhttp://www.kcbs.us/event/7294/grill-for-good-backyard-onlycancelled
p706
aVhttp://www.kcbs.us/event/7313/beltway-bbq-showdown
p707
aVhttp://www.kcbs.us/event/7054/redwood-coast-up-in-smoke-bbq-competitionbackyard-contest-only
p708
aVhttp://www.kcbs.us/event/7070/mankato-cookout-day-2
p709
aVhttp://www.kcbs.us/event/7213/granite-state-bbq-championship
p710
aVhttp://www.kcbs.us/event/7232/lake-country-bbq-cook-offbackyard-only
p711
aVhttp://www.kcbs.us/event/7256/tonganoxie-days-bbq-blowout
p712
aVhttp://www.kcbs.us/event/6496/smoke-in-the-housejudges-full
p713
aVhttp://www.kcbs.us/event/6667/central-plains-ribfest
p714
aVhttp://www.kcbs.us/event/6695/almost-heaven-bbq-bash
p715
aVhttp://www.kcbs.us/event/6737/barbourville-bbq-cookoff-festival
p716
aVhttp://www.kcbs.us/event/6795/hog-capital-challengejudges-full
p717
aVhttp://www.kcbs.us/event/6832/24th-annual-colorado-bbq-challenge
p718
aVhttp://www.kcbs.us/event/6873/knights-of-columbus-bbq-smoke-off-4-lifejudges-full
p719
aVhttp://www.kcbs.us/event/6965/peak-city-pig-fest
p720
aVhttp://www.kcbs.us/event/6984/miles-city-cowtown-cookoff
p721
aVhttp://www.kcbs.us/event/6992/eureka-bbq-bashcancelled
p722
aVhttp://www.kcbs.us/event/6993/desoto-shrine-club-bbq-cook-off
p723
aVhttp://www.kcbs.us/event/7031/hog-and-steer-bbq-championship-and-festivalcancelled
p724
aVhttp://www.kcbs.us/event/7045/smoke-on-the-square-in-memory-of-david-harness
p725
aVhttp://www.kcbs.us/event/7075/rose-festival-kcbs-bbq-competition
p726
aVhttp://www.kcbs.us/event/7099/sams-club-national-bbq-tour
p727
aVhttp://www.kcbs.us/event/7244/carlton-landings-2nd-annual-smoke-on-the-water-bbq-comptition
p728
aVhttp://www.kcbs.us/event/7315/beresford-wheels-n-squeals-rushmore-cup-qualifier
p729
aVhttp://www.kcbs.us/event/7320/qn-with-kia-kia-kia
p730
aVhttp://www.kcbs.us/event/7331/starrs-primal-cook-off-backyard-only
p731
aVhttp://www.kcbs.us/event/7007/smoke-out-in-the-valley
p732
aVhttp://www.kcbs.us/event/7154/smokin-hot-backyard-bbq-contest-backyard-contest
p733
aVhttp://www.kcbs.us/event/7229/big-kahuna-wing-festival-competitors-series
p734
aVhttp://www.kcbs.us/event/7321/dadfest-barbeque-cook-off-backyard-only
p735
aVhttp://www.kcbs.us/event/6704/rotary-rockn-ribsbackyard
p736
aVhttp://www.kcbs.us/event/6705/rotary-rockn-ribs
p737
aVhttp://www.kcbs.us/event/6794/heritage-days-bbq-showdown
p738
aVhttp://www.kcbs.us/event/6877/silicon-valley-bbq-championship
p739
aVhttp://www.kcbs.us/event/6904/hog-wild-bbq-festival
p740
aVhttp://www.kcbs.us/event/6908/great-lenexa-bbq-battle-kansas-state-championship
p741
aVhttp://www.kcbs.us/event/6909/9th-annual-auburn-hills-barbecue-cook-off
p742
aVhttp://www.kcbs.us/event/6994/smokin-on-the-pecos-doubleheader-day-1
p743
aVhttp://www.kcbs.us/event/7066/rib-fest-2017backyard
p744
aVhttp://www.kcbs.us/event/7100/sams-club-national-bbq-tour
p745
aVhttp://www.kcbs.us/event/7147/smoking-hot-bbq-ocalajudges-fullcancelled
p746
aVhttp://www.kcbs.us/event/7157/blount-county-bbq-bash
p747
aVhttp://www.kcbs.us/event/7199/covington-cork-pork-festival
p748
aVhttp://www.kcbs.us/event/7239/freedom-fest-bbq-cook-off
p749
aVhttp://www.kcbs.us/event/7286/2017-leadville-bbq-and-brew-festcancelled
p750
aVhttp://www.kcbs.us/event/7316/smoke-on-the-diamond-backyard-only
p751
aVhttp://www.kcbs.us/event/6831/giant-national-capital-barbecue-battle
p752
aVhttp://www.kcbs.us/event/6995/smokin-on-the-pecos-doubleheader-day-2
p753
aVhttp://www.kcbs.us/event/7136/montana-bbq-cook-off
p754
aVhttp://www.kcbs.us/event/7242/2nd-annual-st-louis-kosher-bbq-competitioncompetieors-seriesjudges-full
p755
aVhttp://www.kcbs.us/event/7327/burnt-ends-oklahoma-barbeque-championshipcancelled
p756
aVhttp://www.kcbs.us/event/7098/sams-club-national-bbq-tour-regional
p757
aVhttp://www.kcbs.us/event/7143/patriotism-in-the-park-bbq-contest-backyard-onlyjudges-full
p758
aVhttp://www.kcbs.us/event/7155/grillin-and-chillin
p759
aVhttp://www.kcbs.us/event/7186/grillin-in-grafton
p760
aVhttp://www.kcbs.us/event/7261/back-to-mayberry
p761
aVhttp://www.kcbs.us/event/7270/assumption-fest-smokin-hot-bbq-2nd-annual
p762
aVhttp://www.kcbs.us/event/7236/i-39-smokin-car-show
p763
aVhttp://www.kcbs.us/event/7088/liberty-4th-fest-bbq-contest-cancelled
p764
aVhttp://www.kcbs.us/event/6725/sc-festival-of-discoverypalmetto-bbq-series
p765
aVhttp://www.kcbs.us/event/6743/i-love-barbecue-music-festival
p766
aVhttp://www.kcbs.us/event/6865/ohio-veterans-barbecue-cook-off
p767
aVhttp://www.kcbs.us/event/6890/new-jersey-state-barbecue-championship
p768
aVhttp://www.kcbs.us/event/6958/16th-annual-bordertown-bash
p769
aVhttp://www.kcbs.us/event/7003/wine-country-big-q-competition-and-festival
p770
aVhttp://www.kcbs.us/event/7030/10th-annual-wellsville-bbq-cookoff
p771
aVhttp://www.kcbs.us/event/7033/johnson-county-fair-bbq-challenge
p772
aVhttp://www.kcbs.us/event/7109/sams-club-national-bbq-tour
p773
aVhttp://www.kcbs.us/event/7150/cumberland-plateau-bbq-cook-off-cruise-in-day-1
p774
aVhttp://www.kcbs.us/event/7311/red-white-blue-and-que-presented-by-lucas-oil-speedway
p775
aVhttp://www.kcbs.us/event/7196/cumberland-plateau-bbq-cook-off-cruise-in-day-2
p776
aVhttp://www.kcbs.us/event/6879/gold-ribbin-bbq-fest-of-greater-green-bay-heat1
p777
aVhttp://www.kcbs.us/event/6957/bbq-loo-blues-too
p778
aVhttp://www.kcbs.us/event/6989/cookin-on-kampeska
p779
aVhttp://www.kcbs.us/event/7049/wolf-creek-wildblue-bbq
p780
aVhttp://www.kcbs.us/event/7085/chillin-grillin-in-the-glades
p781
aVhttp://www.kcbs.us/event/7110/sams-club-national-bbq-tour
p782
aVhttp://www.kcbs.us/event/7275/keepers-of-the-fire-bbq-contest
p783
aVhttp://www.kcbs.us/event/7344/the-georgia-smithfield-guinea-pig
p784
aVhttp://www.kcbs.us/event/6840/2017-clayton-bbq-cook-off-a-kcbscompetitor-series-event-sponsored-by-the-cbca
p785
aVhttp://www.kcbs.us/event/6880/gold-ribbin-bbq-fest-of-greater-green-bay-heat-2
p786
aVhttp://www.kcbs.us/event/6941/rotary-ribs-and-rhythm-blues
p787
aVhttp://www.kcbs.us/event/7210/smokin-at-the-ballpark-bbq-fest
p788
aVhttp://www.kcbs.us/event/6717/riverfest-community-festival
p789
aVhttp://www.kcbs.us/event/6862/central-illinois-bbq-throwdown-judges-full
p790
aVhttp://www.kcbs.us/event/6981/up-in-smoke-bbq-bash
p791
aVhttp://www.kcbs.us/event/7002/wnc-bbq-festivalsmokin-in-the-valley
p792
aVhttp://www.kcbs.us/event/7035/arvada-on-tap---a-craft-beer-and-bbq-fest
p793
aVhttp://www.kcbs.us/event/7111/sams-club-national-bbq-tour
p794
aVhttp://www.kcbs.us/event/7175/smoke-on-the-square
p795
aVhttp://www.kcbs.us/event/7222/smoke-on-the-mountain-bbq-championship
p796
aVhttp://www.kcbs.us/event/7233/bbq-brews
p797
aVhttp://www.kcbs.us/event/7299/smoking-in-the-woodscancelled
p798
aVhttp://www.kcbs.us/event/6830/dodge-city-days-national-beef-smokin-saddles-bbq-contest
p799
aVhttp://www.kcbs.us/event/6912/the-great-adirondack-bbq
p800
aVhttp://www.kcbs.us/event/6950/smoke-in-the-grovejudges-full
p801
aVhttp://www.kcbs.us/event/6961/smokin-hot-cars-bbq
p802
aVhttp://www.kcbs.us/event/6966/effingham-jam
p803
aVhttp://www.kcbs.us/event/7046/cotton-pickin-bbq-cook-off
p804
aVhttp://www.kcbs.us/event/7090/gilroy-garli-que-challenge
p805
aVhttp://www.kcbs.us/event/7112/sams-club-national-bbq-tour
p806
aVhttp://www.kcbs.us/event/7197/racing-for-the-bbq
p807
aVhttp://www.kcbs.us/event/7238/bbq-fest-cooking-contest
p808
aVhttp://www.kcbs.us/event/7257/8th-annual-vista-bbq-classicjudges-full
p809
aVhttp://www.kcbs.us/event/7308/fire-on-the-mountain
p810
aVhttp://www.kcbs.us/event/7324/smoke-on-the-shrine-lake-bluegrass-festival-palmetto-bbq-series
p811
aVhttp://www.kcbs.us/event/6963/binghamton-bbq-bashcompetitors-judges-full
p812
aVhttp://www.kcbs.us/event/7062/the-harpoon-brewery-bbq-festival
p813
aVhttp://www.kcbs.us/event/6838/badger-brews-que
p814
aVhttp://www.kcbs.us/event/6864/our-lady-of-victory-holy-smokes-bbq-competition
p815
aVhttp://www.kcbs.us/event/6971/pigs-pedals
p816
aVhttp://www.kcbs.us/event/6996/rossville-tall-corn-festival-bbq-contest-cancelled
p817
aVhttp://www.kcbs.us/event/7012/san-luis-valley-beat-the-heat-bbq
p818
aVhttp://www.kcbs.us/event/7123/sams-club-national-bbq-tour
p819
aVhttp://www.kcbs.us/event/7135/dillard-bluegrass-barbeque-festival
p820
aVhttp://www.kcbs.us/event/7151/laurie-hillbilly-bbq
p821
aVhttp://www.kcbs.us/event/7240/all-american-bbq-throwdown
p822
aVhttp://www.kcbs.us/event/7246/pit-at-the-park
p823
aVhttp://www.kcbs.us/event/7295/omaha-steaks-nebraska-bbq-championship-day--1
p824
aVhttp://www.kcbs.us/event/7398/smithfield-bbq-classic
p825
aVhttp://www.kcbs.us/event/7296/omaha-steaks-nebraska-bbq-championship-day--2
p826
aVhttp://www.kcbs.us/event/7314/adath-israel-kosher-bbq-contestant-and-festival-competitors-seriescancelled
p827
aVhttp://www.kcbs.us/event/6782/mountain-high-bbq-festival-car-show
p828
aVhttp://www.kcbs.us/event/6789/ceres-bands-brews-bbq-throwdown-formerly-smoke-on-the-river
p829
aVhttp://www.kcbs.us/event/6911/birdys-pitmaster-bbq-competitioncancelled
p830
aVhttp://www.kcbs.us/event/6914/smokin-in-mcminnville
p831
aVhttp://www.kcbs.us/event/6997/casa-grab-root-growl
p832
aVhttp://www.kcbs.us/event/7000/smokin-trackside-bbq-bash
p833
aVhttp://www.kcbs.us/event/7124/sams-club-national-bbq-tour
p834
aVhttp://www.kcbs.us/event/7260/maryland-state-bbq-bash
p835
aVhttp://www.kcbs.us/event/7342/qing-to-cure-childhood-cancer-bbq-cookoff
p836
aVhttp://www.kcbs.us/event/7347/northwood-triple-crownbackyard
p837
aVhttp://www.kcbs.us/event/7190/new-londons-best-bbq-chef-competiton
p838
aVhttp://www.kcbs.us/event/7289/vine-street-bbq-competition-backyard-onlyjudges-full
p839
aVhttp://www.kcbs.us/event/7350/seward-county-fair-rib-rallycompetitors-series
p840
aVhttp://www.kcbs.us/event/6758/pepsi-wy-state-championship-bbq-bluegrass-festival
p841
aVhttp://www.kcbs.us/event/6801/del-mar-bbq-championship
p842
aVhttp://www.kcbs.us/event/6818/lassen-county-annual-bbq-cook-off
p843
aVhttp://www.kcbs.us/event/6910/bbq-and-fly-in-on-the-river
p844
aVhttp://www.kcbs.us/event/6959/hudson-valley-ribfest
p845
aVhttp://www.kcbs.us/event/7009/big-bad-bbq-in-boydton
p846
aVhttp://www.kcbs.us/event/7028/smsu-smokefest
p847
aVhttp://www.kcbs.us/event/7032/madison-ribberfest-bbq-blues-festival
p848
aVhttp://www.kcbs.us/event/7034/flint-hills-beef-fest-bbqcancelled
p849
aVhttp://www.kcbs.us/event/7052/oaktown-throwdown-bbq-cancelled
p850
aVhttp://www.kcbs.us/event/7125/sams-club-national-bbq-tour
p851
aVhttp://www.kcbs.us/event/7153/cape-jaycees-bbq-fest
p852
aVhttp://www.kcbs.us/event/7206/smokin-on-oak
p853
aVhttp://www.kcbs.us/event/6710/hudson-bay-heritage-days-bbq-cook-off
p854
aVhttp://www.kcbs.us/event/7359/mchenry-rotary-blues-brews-bbq
p855
aVhttp://www.kcbs.us/event/7381/total-eclips-of-the-q-presented-by-la-bella-casa-back-yard
p856
aVhttp://www.kcbs.us/event/6928/6th-annual-death-door-barbequeday-1
p857
aVhttp://www.kcbs.us/event/6580/bbq-the-bear-festcancelled
p858
aVhttp://www.kcbs.us/event/6773/bbq-on-the-bricks
p859
aVhttp://www.kcbs.us/event/6814/10th-annual-big-island-bbq
p860
aVhttp://www.kcbs.us/event/6861/6th-annual-death-door-barbequeday-2
p861
aVhttp://www.kcbs.us/event/6924/raider-red-meats-bbq-ribeye-championship
p862
aVhttp://www.kcbs.us/event/6968/grill-games
p863
aVhttp://www.kcbs.us/event/6991/rockin-apples-cancelled
p864
aVhttp://www.kcbs.us/event/7010/the-great-catskill-mtn-bbq-fest
p865
aVhttp://www.kcbs.us/event/7020/grills-n-grills
p866
aVhttp://www.kcbs.us/event/7051/new-holland-summer-fest
p867
aVhttp://www.kcbs.us/event/7060/great-american-bbq-festival
p868
aVhttp://www.kcbs.us/event/7063/hill-city-wine-brew-bbq
p869
aVhttp://www.kcbs.us/event/7077/east-central-state-bbq-cook-off-paola-roots-festival
p870
aVhttp://www.kcbs.us/event/7126/sams-club-national-bbq-tour-regional
p871
aVhttp://www.kcbs.us/event/7127/pigs-and-peaches-bbq-festivalgbc-qualifier
p872
aVhttp://www.kcbs.us/event/7301/hott-butts-bbq-contest-cancelled
p873
aVhttp://www.kcbs.us/event/7319/wild-west-bbq-shoot-out
p874
aVhttp://www.kcbs.us/event/7348/montana-pitmaster-classic
p875
aVhttp://www.kcbs.us/event/7349/bbq-at-the-jungle-cancelled
p876
aVhttp://www.kcbs.us/event/7384/western-legends-roundup-bbq-cook-offbackyard-only
p877
aVhttp://www.kcbs.us/event/6441/hava-nagrilla-2017-kosher-competitors-seriesjudges-full
p878
aVhttp://www.kcbs.us/event/7376/indiana-bacon-festival-backyard
p879
aVhttp://www.kcbs.us/event/7382/pikes-peak-bbq-showdownbackyard-only
p880
aVhttp://www.kcbs.us/event/7385/first-annual-half-way-to-stpats-bbq-contest
p881
aVhttp://www.kcbs.us/event/7363/38th-american-royal-world-series-of-barbecue-invitational
p882
aVhttp://www.kcbs.us/event/7093/7th-annual-smokin-in-the-bogs
p883
aVhttp://www.kcbs.us/event/7113/sams-club-national-bbq-tour
p884
aVhttp://www.kcbs.us/event/7189/smoke-the-town
p885
aVhttp://www.kcbs.us/event/7215/pigmania-lebanon-state-championship-bbq-music-festival-teams-and-judges-full
p886
aVhttp://www.kcbs.us/event/7237/beach-boogie-and-bbq-festival-palmetto-bbq-series
p887
aVhttp://www.kcbs.us/event/7364/38th-american-royal-world-series-of-barbecue-open
p888
aVhttp://www.kcbs.us/event/6781/finger-lakes-fire-smokecancelled
p889
aVhttp://www.kcbs.us/event/6900/bedford-blues-bbq-festival-judges-full
p890
aVhttp://www.kcbs.us/event/6953/big-muddy-brew-n-quecompetitors-series
p891
aVhttp://www.kcbs.us/event/7192/septemberfest-bbq-rib-eye-steak-cookoff-challenge
p892
aVhttp://www.kcbs.us/event/7209/weston-sizzlerscancelled
p893
aVhttp://www.kcbs.us/event/7282/redwood-coast-grills-gone-wild
p894
aVhttp://www.kcbs.us/event/7459/blues-views-bbq-festivals-cookin-for-a-causecompetitors-series
p895
aVhttp://www.kcbs.us/event/6779/smoke-on-the-ohiojudges-full
p896
aVhttp://www.kcbs.us/event/6796/13th-annual-recovery-fest8th-annual-bbq-state-championship
p897
aVhttp://www.kcbs.us/event/6925/beak-week-bbq-challenge
p898
aVhttp://www.kcbs.us/event/6943/ribs-rod-rockn-roll
p899
aVhttp://www.kcbs.us/event/6985/international-goat-days-championship-bbq-contest-smokin-in-the-goat-pen
p900
aVhttp://www.kcbs.us/event/7036/derby-bbq-festival
p901
aVhttp://www.kcbs.us/event/7044/hot-pursuit-bbq
p902
aVhttp://www.kcbs.us/event/7047/puckaway-pigfest
p903
aVhttp://www.kcbs.us/event/7076/tony-stone-cookeville-cook-off
p904
aVhttp://www.kcbs.us/event/7107/sams-club-national-bbq-tour
p905
aVhttp://www.kcbs.us/event/7156/colorado-pork-hops-challenge
p906
aVhttp://www.kcbs.us/event/7179/silver-lake-apple-bbq-festival
p907
aVhttp://www.kcbs.us/event/7258/hog-wild-west-bbq-contest
p908
aVhttp://www.kcbs.us/event/7056/green-mountain-bbq-championship
p909
aVhttp://www.kcbs.us/event/7207/kansas-city-kosher-bbq-championship-competitors-series
p910
aVhttp://www.kcbs.us/event/6812/tilley-harley-davidson-biker-blues-bbq-rally-and-bbq-classic
p911
aVhttp://www.kcbs.us/event/6878/bands-bbq-at-the-point
p912
aVhttp://www.kcbs.us/event/6906/marshall-county-blazin-bbq-bluegrass
p913
aVhttp://www.kcbs.us/event/6940/rockn-brews-bbq-festival
p914
aVhttp://www.kcbs.us/event/6990/butler-chambers-of-commerce-bbq-hucksters-days
p915
aVhttp://www.kcbs.us/event/7016/3rd-annual-hot-qs-cold-brews-bbq-championship
p916
aVhttp://www.kcbs.us/event/7043/jesse-james-barbeque-cook-out
p917
aVhttp://www.kcbs.us/event/7080/rockn-ribville-gbc-qualifier
p918
aVhttp://www.kcbs.us/event/7114/sams-club-national-bbq-tour-regional
p919
aVhttp://www.kcbs.us/event/7137/cherokee-strip-bbq-cook-off
p920
aVhttp://www.kcbs.us/event/7152/currituck-heritage-festival
p921
aVhttp://www.kcbs.us/event/7158/battle-of-the-brisketcancelled
p922
aVhttp://www.kcbs.us/event/7169/taste-of-autumn-bbq-championship
p923
aVhttp://www.kcbs.us/event/7171/ktd-smokin-gobbler-cook-off
p924
aVhttp://www.kcbs.us/event/7231/smokin-on-the-rez-bbq-and-music-festival-day-1-judges-list-full
p925
aVhttp://www.kcbs.us/event/7271/big-brother-big-sister-riverfest
p926
aVhttp://www.kcbs.us/event/7312/grillingator-grounds
p927
aVhttp://www.kcbs.us/event/7346/smokin-on-the-white
p928
aVhttp://www.kcbs.us/event/7361/pork-a-palooza
p929
aVhttp://www.kcbs.us/event/7396/smoke-on-the-water-new-jersey-state-barbecue-championship
p930
aVhttp://www.kcbs.us/event/7053/table-rock-boats-and-bones
p931
aVhttp://www.kcbs.us/event/7274/smokin-on-the-rez-bbq-and-music-festival-day2-judges-list-full
p932
aVhttp://www.kcbs.us/event/6852/que-by-the-sea
p933
aVhttp://www.kcbs.us/event/6886/butts-and-beans-bbq-challenge
p934
aVhttp://www.kcbs.us/event/6936/grilling-chillin-bbq
p935
aVhttp://www.kcbs.us/event/6937/murphysboro-bbq-cookoff
p936
aVhttp://www.kcbs.us/event/6939/shawnee-great-grillers-state-championship-barbeque
p937
aVhttp://www.kcbs.us/event/6947/smoke-in-the-park
p938
aVhttp://www.kcbs.us/event/6973/great-maine-bbq-challenge
p939
aVhttp://www.kcbs.us/event/7006/bikes-blues-and-bbq
p940
aVhttp://www.kcbs.us/event/7078/tri-city-bbq-fest
p941
aVhttp://www.kcbs.us/event/7092/jammin-in-jc-blues-bbq-festival
p942
aVhttp://www.kcbs.us/event/7108/sams-club-national-bbq-tour-regional
p943
aVhttp://www.kcbs.us/event/7234/oinktoberfest
p944
aVhttp://www.kcbs.us/event/7241/bbbrew-for-hope
p945
aVhttp://www.kcbs.us/event/7251/garden-city-fall-festival-bbq-contest-cancelled
p946
aVhttp://www.kcbs.us/event/7263/first-tennessee-bank-bluegrass-bbq-competitors-seriesjudges-full
p947
aVhttp://www.kcbs.us/event/7277/smoke-in-the-valley
p948
aVhttp://www.kcbs.us/event/7338/the-rumble-on-the-river-presented-by-thebbqsuperstorecom
p949
aVhttp://www.kcbs.us/event/7365/smokin-in-the-hills-limited-to-the-first-25-teams
p950
aVhttp://www.kcbs.us/event/7383/smokin-up-layton-hill
p951
aVhttp://www.kcbs.us/event/7393/smoke-soul-fest
p952
aVhttp://www.kcbs.us/event/7297/barbeque-on-the-hill-competitors-series
p953
aVhttp://www.kcbs.us/event/7420/heart-of-arkansas-bbq-cookoff-backyard-only
p954
aVhttp://www.kcbs.us/event/6730/dells-bbq-bashbackyard-only
p955
aVhttp://www.kcbs.us/event/6853/smoke-on-the-trails
p956
aVhttp://www.kcbs.us/event/6858/smokin-in-sapulpa-4th-annual-bbq
p957
aVhttp://www.kcbs.us/event/6956/bryants-buzzin-bbq-bash
p958
aVhttp://www.kcbs.us/event/7130/smoking-in-the-golden-valley
p959
aVhttp://www.kcbs.us/event/7170/porktober-que
p960
aVhttp://www.kcbs.us/event/7184/downtown-jonesboro-bbq-festival
p961
aVhttp://www.kcbs.us/event/7223/bbq-in-the-badlands
p962
aVhttp://www.kcbs.us/event/7323/unruly-country-brew-n-que-festivaljudges-full
p963
aVhttp://www.kcbs.us/event/7330/rim-county-bbq-classic-and-testicle-festival
p964
aVhttp://www.kcbs.us/event/7343/free-state-bbq-showdowncancelled
p965
aVhttp://www.kcbs.us/event/7357/q-in-the-lou-cancelled
p966
aVhttp://www.kcbs.us/event/7379/lulus-brew-que
p967
aVhttp://www.kcbs.us/event/7008/red-white-and-que
p968
aVhttp://www.kcbs.us/event/6811/jim-beam-bbq-classic
p969
aVhttp://www.kcbs.us/event/6867/decaturs-smokin-bbq-festivaljudges-full
p970
aVhttp://www.kcbs.us/event/6962/bbq-blues-on-the-levee
p971
aVhttp://www.kcbs.us/event/6988/independence-fire-ice-bbq
p972
aVhttp://www.kcbs.us/event/7142/harbor-que
p973
aVhttp://www.kcbs.us/event/7068/roast-n-boast-bbq
p974
aVhttp://www.kcbs.us/event/7144/all-fired-up-backyard-onlycancelled
p975
aVhttp://www.kcbs.us/event/7191/que-cruz
p976
aVhttp://www.kcbs.us/event/7193/go-hog-wild-arkansas-bbq-championship
p977
aVhttp://www.kcbs.us/event/7252/squealin-in-the-squarepalmetto-bbq-series
p978
aVhttp://www.kcbs.us/event/7293/devon-grube-memorial-bbq-classic
p979
aVhttp://www.kcbs.us/event/7300/keystone-classic-bbq
p980
aVhttp://www.kcbs.us/event/7328/national-pro-bbq-tour-championship
p981
aVhttp://www.kcbs.us/event/7336/riverside-blues-brews-bbq-festival
p982
aVhttp://www.kcbs.us/event/7386/red-rocks-country-club-bbq-championship
p983
aVhttp://www.kcbs.us/event/7399/clarksville-bbq-bash-backyard-only
p984
aVhttp://www.kcbs.us/event/7408/fire-n-up-in-the-flint-hills
p985
aVhttp://www.kcbs.us/event/7417/wisconsin-colorfest-bbq-bash
p986
aVhttp://www.kcbs.us/event/6927/leavenworth-break-out-bbq-cancelled
p987
aVhttp://www.kcbs.us/event/7341/smoke-on-the-waterbackyard-only
p988
aVhttp://www.kcbs.us/event/7449/holmes-drywall-supply-incbackyard-only-invite-only
p989
aVhttp://www.kcbs.us/event/6917/cibr-bbq-central-illinois-bragging-right-bbq
p990
aVhttp://www.kcbs.us/event/6970/dana-point-state-bbq-championshipcancelled
p991
aVhttp://www.kcbs.us/event/7013/anchor-city-cook-off
p992
aVhttp://www.kcbs.us/event/7074/the-real-squeal-bbq-music-festival-gbc-qualifier
p993
aVhttp://www.kcbs.us/event/7132/eastern-carolina-bbq-throw-down
p994
aVhttp://www.kcbs.us/event/7134/grillin-chillin-bbq-cook-off
p995
aVhttp://www.kcbs.us/event/7204/14th-annual-cookin-on-the-kaw
p996
aVhttp://www.kcbs.us/event/7211/shenandoah-valley-bbq-fest
p997
aVhttp://www.kcbs.us/event/7318/smokin-blues-bbq-festival
p998
aVhttp://www.kcbs.us/event/7409/oc-bbq-competition
p999
aVhttp://www.kcbs.us/event/7422/smoke-ale-fall-festival
p1000
aVhttp://www.kcbs.us/event/6687/bluesbrew-bbqbackyard
p1001
aVhttp://www.kcbs.us/event/7339/bay-state-bbq-championship
p1002
aVhttp://www.kcbs.us/event/7400/bedouin-brew-bar-b-que
p1003
aVhttp://www.kcbs.us/event/7421/nile-beer-b-q
p1004
aVhttp://www.kcbs.us/event/7454/west-texas-king-of-meat-bbq-championship-backyard-onlycancelled
p1005
aVhttp://www.kcbs.us/event/6969/big-buffalo-crossing-bbq-cook-off
p1006
aVhttp://www.kcbs.us/event/7057/harper-county-bullseye-bbq
p1007
aVhttp://www.kcbs.us/event/7061/smoking-in-the-foothills-barbecue-competition-and-festival
p1008
aVhttp://www.kcbs.us/event/7172/boo-b-que
p1009
aVhttp://www.kcbs.us/event/7187/mid-south-bbq-festival
p1010
aVhttp://www.kcbs.us/event/7272/ohio-smoked-meat-bbq-festival
p1011
aVhttp://www.kcbs.us/event/7278/best-of-the-midwest-bbq-cook-off
p1012
aVhttp://www.kcbs.us/event/7358/2017-greenbriar-blaze-off-and-senior-q
p1013
aVhttp://www.kcbs.us/event/7411/downtown-bbq-showdown
p1014
aVhttp://www.kcbs.us/event/7437/willis-bbq-festival-backyard-only
p1015
aVhttp://www.kcbs.us/event/7443/logandale-fall-festival
p1016
aVhttp://www.kcbs.us/event/7340/ocean-sate-bbq-championship
p1017
aVhttp://www.kcbs.us/event/7438/15th-annual-conecuh-sausage-festivalbackyard-only
p1018
aVhttp://www.kcbs.us/event/6964/border-war-barbeque
p1019
aVhttp://www.kcbs.us/event/7014/smokin-the-fort-bbq-blue-grass-festival
p1020
aVhttp://www.kcbs.us/event/7450/jack-daniels-world-championship-invitation-barbecue-judges-by-invitation-only
p1021
aVhttp://www.kcbs.us/event/7451/jack-daniels-world-championship-shade-tree-contest-backyard
p1022
aVhttp://www.kcbs.us/event/7245/third-annual-dallas-kosher-bbq-championshipcompetitors-series
p1023
aVhttp://www.kcbs.us/event/7188/indio-california-state-bbq-championship-festival
p1024
aVhttp://www.kcbs.us/event/7247/dickson-county-smoke-fest
p1025
aVhttp://www.kcbs.us/event/7439/world-barbecue-championship
p1026
aVhttp://www.kcbs.us/event/6889/smoke-on-the-harbor-bbq-throwdownpalmetto-bbq-series
p1027
aVhttp://www.kcbs.us/event/7174/bar-b-cure-cancelled
p1028
aVhttp://www.kcbs.us/event/7366/brew-b-q
p1029
aVhttp://www.kcbs.us/event/7395/polar-pig-bbq-cook-off-judges-full
p1030
aVhttp://www.kcbs.us/event/7235/suncoast-credit-union-plant-city-pig-jam
p1031
aVhttp://www.kcbs.us/event/7419/mission-q-backyard-only
p1032
aVhttp://www.kcbs.us/event/7427/quen-in-cumming-day-1
p1033
aVhttp://www.kcbs.us/event/7462/quen-in-cumming-day-1-duel
p1034
aVhttp://www.kcbs.us/event/7428/quen-in-cumming-day-2
p1035
aVhttp://www.kcbs.us/event/6617/smokin-up-the-campground-gbc-qualifier
p1036
aVhttp://www.kcbs.us/event/7463/christmas-on-the-river
p1037
asI2013
(lp1038
Vhttp://www.kcbs.us/event/3960/king-of-the-grill-competitors-series-cancelled
p1039
aVhttp://www.kcbs.us/event/3829/lakeland-pig-festival
p1040
aVhttp://www.kcbs.us/event/3850/5th-annual-lake-havasu-music-brews-bbq-championship
p1041
aVhttp://www.kcbs.us/event/3806/georgia-bbq-championship-throwdowngbc-qualifier
p1042
aVhttp://www.kcbs.us/event/4192/chubby-hubby-bbq-bash
p1043
aVhttp://www.kcbs.us/event/4199/sams-club-national-bbq-tour
p1044
aVhttp://www.kcbs.us/event/4187/chubby-hubby-bbq-bash
p1045
aVhttp://www.kcbs.us/event/3977/polar-bear-challenge
p1046
aVhttp://www.kcbs.us/event/4081/6th-annual-kansas-winter-q-cancelled
p1047
aVhttp://www.kcbs.us/event/4200/sams-club-national-bbq-tour
p1048
aVhttp://www.kcbs.us/event/3882/smokin-in-the-square
p1049
aVhttp://www.kcbs.us/event/4211/sams-club-national-bbq-tour
p1050
aVhttp://www.kcbs.us/event/3858/bbq-championship-hog-wild-festival
p1051
aVhttp://www.kcbs.us/event/4212/sams-club-national-bbq-tour
p1052
aVhttp://www.kcbs.us/event/3790/dont-be-cruel-bbq-duel
p1053
aVhttp://www.kcbs.us/event/3968/nkc-mo-state-bbq-championship
p1054
aVhttp://www.kcbs.us/event/4138/2nd-annual-santa-anita-winners-circle-bbq-championship
p1055
aVhttp://www.kcbs.us/event/4147/smokin-at-the-run-miami-ok
p1056
aVhttp://www.kcbs.us/event/4205/sams-club-national-bbq-tour
p1057
aVhttp://www.kcbs.us/event/3893/best-of-the-basin-barbeque-championship
p1058
aVhttp://www.kcbs.us/event/3899/heatin-up-the-bricks
p1059
aVhttp://www.kcbs.us/event/3918/hammond-blues-and-bbq
p1060
aVhttp://www.kcbs.us/event/4206/sams-club-national-bbq-tour
p1061
aVhttp://www.kcbs.us/event/4295/silverton-bbq-throwdown-cancelled
p1062
aVhttp://www.kcbs.us/event/3863/benton-ky-kiwanis-barbeque-kook-off
p1063
aVhttp://www.kcbs.us/event/3864/slidell-bbq-challenge
p1064
aVhttp://www.kcbs.us/event/4188/firelake-bbq-cook-off
p1065
aVhttp://www.kcbs.us/event/4207/sams-club-national-bbq-tour
p1066
aVhttp://www.kcbs.us/event/3792/smokin-on-the-river-chattoogas-bbq-cook-off-gbc-qualifier
p1067
aVhttp://www.kcbs.us/event/3821/the-ultimate-bbq-showdown-east-vs-west-iv
p1068
aVhttp://www.kcbs.us/event/3832/kennett-jaycees-show-me-state-bbq-cookoff
p1069
aVhttp://www.kcbs.us/event/3900/stillwater-elks-25th-annual-blazathon
p1070
aVhttp://www.kcbs.us/event/4106/smokin-on-big-creek
p1071
aVhttp://www.kcbs.us/event/4208/sams-club-national-bbq-tour
p1072
aVhttp://www.kcbs.us/event/4244/third-annual-bull-moose-bbq-contest
p1073
aVhttp://www.kcbs.us/event/4287/1st-annual-parkinsons-smoke-out
p1074
aVhttp://www.kcbs.us/event/4007/kings-of-the-que-bbq-championship
p1075
aVhttp://www.kcbs.us/event/3914/smoke-in-the-spring
p1076
aVhttp://www.kcbs.us/event/3984/smoke-on-the-falls
p1077
aVhttp://www.kcbs.us/event/4027/grilling-on-the-river-13
p1078
aVhttp://www.kcbs.us/event/4209/sams-club-national-bbq-tour
p1079
aVhttp://www.kcbs.us/event/4341/the-best-dam-bbq-contest-at-smithville-lake
p1080
aVhttp://www.kcbs.us/event/3866/main-street-bbq-bluesfest
p1081
aVhttp://www.kcbs.us/event/3884/8th-annual-smokin-red-dirt-bbq
p1082
aVhttp://www.kcbs.us/event/3920/rockn-ribs-bbq-festival
p1083
aVhttp://www.kcbs.us/event/3952/high-on-the-hog-festival
p1084
aVhttp://www.kcbs.us/event/3995/new-york-city-bbq-cookoff
p1085
aVhttp://www.kcbs.us/event/3996/5th-annual-vfw-post-846-bbq-challenge-full
p1086
aVhttp://www.kcbs.us/event/4028/kings-mountain-firehouse-bbq-cook-off
p1087
aVhttp://www.kcbs.us/event/4058/cornelia-apple-blossom-bbq-festivals-gbc-qualifier
p1088
aVhttp://www.kcbs.us/event/4104/pork-in-the-park-barbeque-festival
p1089
aVhttp://www.kcbs.us/event/4119/smoke-over-veishea
p1090
aVhttp://www.kcbs.us/event/4210/sams-club-national-bbq-tour-regional
p1091
aVhttp://www.kcbs.us/event/3939/high-desert-bbq-showdown
p1092
aVhttp://www.kcbs.us/event/3779/bbq-capital-cook-off
p1093
aVhttp://www.kcbs.us/event/3793/wabash-ribber-fest-barbecue-championship
p1094
aVhttp://www.kcbs.us/event/3815/pony-express-bbq-challenge
p1095
aVhttp://www.kcbs.us/event/3865/bbq-boogie-blues
p1096
aVhttp://www.kcbs.us/event/3919/savannah-bbq-fest-bone-marrow-drive-cancelled--bbq-event-only
p1097
aVhttp://www.kcbs.us/event/3983/smokin-in-the-creek
p1098
aVhttp://www.kcbs.us/event/4077/smokin-n-the-ville
p1099
aVhttp://www.kcbs.us/event/4101/char-broil-pig-bowl-gbc-qualifier
p1100
aVhttp://www.kcbs.us/event/4149/rkansas-city-state-bbq-championship
p1101
aVhttp://www.kcbs.us/event/4214/sams-club-national-bbq-tour
p1102
aVhttp://www.kcbs.us/event/4237/smokin-in-the-ozarks
p1103
aVhttp://www.kcbs.us/event/4277/7th-stagecoach-bbq-fest
p1104
aVhttp://www.kcbs.us/event/4285/southern-hot-wing-contest
p1105
aVhttp://www.kcbs.us/event/4296/smoke-on-the-water-nevada-bbq-championship
p1106
aVhttp://www.kcbs.us/event/3783/truman-heritage-festival-bbq-championship
p1107
aVhttp://www.kcbs.us/event/3814/naptown-barbayq-contest-music-festival
p1108
aVhttp://www.kcbs.us/event/3869/bixby-bbq-blues-festival
p1109
aVhttp://www.kcbs.us/event/3874/the-masters-in-may
p1110
aVhttp://www.kcbs.us/event/3912/columbia-elks-lodge-594-bbq-contest
p1111
aVhttp://www.kcbs.us/event/3917/brew-blues-bar-b-q-cook-off
p1112
aVhttp://www.kcbs.us/event/3922/west-knoxville-rotarybbq-cookoff
p1113
aVhttp://www.kcbs.us/event/3933/the-whistle-stop-festival-rocket-city-bbq
p1114
aVhttp://www.kcbs.us/event/4041/north-platte-honky-tonk-barbecue-festival
p1115
aVhttp://www.kcbs.us/event/4156/smokelawn
p1116
aVhttp://www.kcbs.us/event/4159/1st-annual-show-low-bbq-throwdown
p1117
aVhttp://www.kcbs.us/event/4183/apple-blossom-barbecue-contest
p1118
aVhttp://www.kcbs.us/event/4215/sams-club-national-bbq-tour
p1119
aVhttp://www.kcbs.us/event/4268/battle-of-brandon-bbq-challenge
p1120
aVhttp://www.kcbs.us/event/3928/smokin-on-the-water
p1121
aVhttp://www.kcbs.us/event/3716/jiggy-with-the-piggy-bbq-challenge
p1122
aVhttp://www.kcbs.us/event/3936/bbq-jamboree
p1123
aVhttp://www.kcbs.us/event/3944/rods-ribs-rock-n-roll-2013
p1124
aVhttp://www.kcbs.us/event/3945/boss-hog-cook-off-gbc-qualifier
p1125
aVhttp://www.kcbs.us/event/3961/mississippi-springfest
p1126
aVhttp://www.kcbs.us/event/3966/roman-roast-on-the-river-gbc-qualifier
p1127
aVhttp://www.kcbs.us/event/3973/boots-bbq-festival
p1128
aVhttp://www.kcbs.us/event/4032/sertoma-48-bbq
p1129
aVhttp://www.kcbs.us/event/4070/west-coast-bbq-classic
p1130
aVhttp://www.kcbs.us/event/4086/green-lane-fire-cos
p1131
aVhttp://www.kcbs.us/event/4189/wild-west-bbq
p1132
aVhttp://www.kcbs.us/event/4201/sams-club-national-bbq-tour
p1133
aVhttp://www.kcbs.us/event/4243/platte-city-bbq-cook-off
p1134
aVhttp://www.kcbs.us/event/4317/2013-optimist-kick-off-cook-off
p1135
aVhttp://www.kcbs.us/event/4345/bbq-in-the-bluffs
p1136
aVhttp://www.kcbs.us/event/3828/grand-lake-bbq-festival
p1137
aVhttp://www.kcbs.us/event/3902/chesapeake-jubilee-bbq-cook-off
p1138
aVhttp://www.kcbs.us/event/3923/buckeye-state-bbq-championship
p1139
aVhttp://www.kcbs.us/event/3967/bloomin-bbq-bluegrass
p1140
aVhttp://www.kcbs.us/event/3970/taste-of-wheatstock
p1141
aVhttp://www.kcbs.us/event/4033/great-mall-bbq-contest-festival-cancelled
p1142
aVhttp://www.kcbs.us/event/4034/hawgin-on-lanier-gbc-qualifier
p1143
aVhttp://www.kcbs.us/event/4063/minnesota-in-may
p1144
aVhttp://www.kcbs.us/event/4076/middletown-bbq-cook-off
p1145
aVhttp://www.kcbs.us/event/4127/bakersfields-biggest-baddest-bbq-championship
p1146
aVhttp://www.kcbs.us/event/4139/lake-of-the-ozarks-blues-bbq-weekend
p1147
aVhttp://www.kcbs.us/event/4144/cotton-pickin-bbq-cook-off
p1148
aVhttp://www.kcbs.us/event/4202/sams-club-national-bbq-tour
p1149
aVhttp://www.kcbs.us/event/4240/3rd-annual-smokin-on-the-lake
p1150
aVhttp://www.kcbs.us/event/4390/randolph-county-pig-party
p1151
aVhttp://www.kcbs.us/event/4060/the-lexington-battle-green-bbq-festival
p1152
aVhttp://www.kcbs.us/event/4069/tony-stone-low-slow-bbq-competition
p1153
aVhttp://www.kcbs.us/event/3811/9th-annual-best-dam-barbecue-challenge
p1154
aVhttp://www.kcbs.us/event/4059/lewisburg-rotary-club-bbq-cook-off
p1155
aVhttp://www.kcbs.us/event/4075/westmont-red-white-bbq
p1156
aVhttp://www.kcbs.us/event/4158/memorial-day-salute-to-service
p1157
aVhttp://www.kcbs.us/event/4171/red-white-blue-barbecue-cancelled
p1158
aVhttp://www.kcbs.us/event/4267/blues-brews-bbq
p1159
aVhttp://www.kcbs.us/event/4315/papa-joes-banjo-b-que-gbc-qualifier
p1160
aVhttp://www.kcbs.us/event/3844/bbq-blues-brews-on-the-bay
p1161
aVhttp://www.kcbs.us/event/4012/roc-city-rib-fest
p1162
aVhttp://www.kcbs.us/event/4105/the-memorial-day-pignic
p1163
aVhttp://www.kcbs.us/event/4131/smokin-in-the-junction
p1164
aVhttp://www.kcbs.us/event/4298/ukbbqa-q-on-the-canal
p1165
aVhttp://www.kcbs.us/event/3873/big-blue-bbq-championship
p1166
aVhttp://www.kcbs.us/event/3885/mclouth-bbq-blowout-22nd-annual
p1167
aVhttp://www.kcbs.us/event/3892/bridge-city-bbq-fest-cancelled
p1168
aVhttp://www.kcbs.us/event/3950/que-for-the-troops
p1169
aVhttp://www.kcbs.us/event/3978/smokin-in-steele
p1170
aVhttp://www.kcbs.us/event/4030/2nd-annual-valley-veterans-barbecue-competition
p1171
aVhttp://www.kcbs.us/event/4079/okfuskee-volunteer-firefighters-wildfire-cookoff
p1172
aVhttp://www.kcbs.us/event/4087/valley-center-spring-fling
p1173
aVhttp://www.kcbs.us/event/4100/variety-childrens-charity-bbq-bash
p1174
aVhttp://www.kcbs.us/event/4115/original-sd-bbq-championships
p1175
aVhttp://www.kcbs.us/event/4117/royal-gorge-holy-smoke-bbq-showdown
p1176
aVhttp://www.kcbs.us/event/4203/sams-club-national-bbq-tour
p1177
aVhttp://www.kcbs.us/event/4312/beltway-bbq-showdown
p1178
aVhttp://www.kcbs.us/event/3897/monadnock-up-in-smoke-bbq-fest
p1179
aVhttp://www.kcbs.us/event/3674/canterbury-park-blazing-belmont-bbq-weekend-cancelled
p1180
aVhttp://www.kcbs.us/event/3859/its-a-smokin-good-thang
p1181
aVhttp://www.kcbs.us/event/3867/boats-bands-and-bbq
p1182
aVhttp://www.kcbs.us/event/3883/podunk-pig-party
p1183
aVhttp://www.kcbs.us/event/3941/lincolnton-hog-happenin
p1184
aVhttp://www.kcbs.us/event/4148/poor-que
p1185
aVhttp://www.kcbs.us/event/4301/keepers-of-the-fire-bbq-contest
p1186
aVhttp://www.kcbs.us/event/4173/delta-smoke-bbq-contest-judges-full
p1187
aVhttp://www.kcbs.us/event/4174/tonganoxie-days-bbq-blowout
p1188
aVhttp://www.kcbs.us/event/4176/covered-bridge-que-gbc-qualifier
p1189
aVhttp://www.kcbs.us/event/4184/bourbon-city-bbq-festival-cookoff
p1190
aVhttp://www.kcbs.us/event/4218/sams-club-national-bbq-tour
p1191
aVhttp://www.kcbs.us/event/4233/smokin-on-the-summit
p1192
aVhttp://www.kcbs.us/event/3823/summer-kick-off-cancelled
p1193
aVhttp://www.kcbs.us/event/3870/blue-ridge-bbq-music-festival
p1194
aVhttp://www.kcbs.us/event/3871/california-honey-harvest-festival-kcbs-bbq
p1195
aVhttp://www.kcbs.us/event/3910/rockn-ribfest-nh-state-bbq-competition
p1196
aVhttp://www.kcbs.us/event/3956/colorado-barbecue-challenge
p1197
aVhttp://www.kcbs.us/event/3957/ol-glory-bbq-bash
p1198
aVhttp://www.kcbs.us/event/3962/crossborder-blues-brews-que
p1199
aVhttp://www.kcbs.us/event/3997/hog-wild-bbq-chrome-fest
p1200
aVhttp://www.kcbs.us/event/4004/pig-in-the-park
p1201
aVhttp://www.kcbs.us/event/4010/sunflower-barbecue
p1202
aVhttp://www.kcbs.us/event/4038/the-desoto-shrine-club-5th-annual-2013-bbq-cookoff
p1203
aVhttp://www.kcbs.us/event/4112/northern-arizona-bbq-festival
p1204
aVhttp://www.kcbs.us/event/4132/smokin-on-the-river
p1205
aVhttp://www.kcbs.us/event/4137/blue-mountain-bbq-champion
p1206
aVhttp://www.kcbs.us/event/4146/central-md-swinetastic-bbq-festival
p1207
aVhttp://www.kcbs.us/event/4198/state-center-rose-festival-bbq-championship
p1208
aVhttp://www.kcbs.us/event/4219/sams-club-national-bbq-tour
p1209
aVhttp://www.kcbs.us/event/4411/southern-pride-invitational-competitors-series
p1210
aVhttp://www.kcbs.us/event/4343/treasure-island-international-bbq-championship
p1211
aVhttp://www.kcbs.us/event/3943/rockn-freedom
p1212
aVhttp://www.kcbs.us/event/3843/south-park-kick-ass-bbq-competition
p1213
aVhttp://www.kcbs.us/event/3872/5th-annual-auburn-hills-barbecue-cook-off
p1214
aVhttp://www.kcbs.us/event/3929/iowa-state-bbq-championship
p1215
aVhttp://www.kcbs.us/event/3975/bbq-bands-brews
p1216
aVhttp://www.kcbs.us/event/3988/knights-of-columbus
p1217
aVhttp://www.kcbs.us/event/4009/great-lenexa-bbq-battle---kansas-state-championship
p1218
aVhttp://www.kcbs.us/event/4020/smoking-knights-bbq-competition
p1219
aVhttp://www.kcbs.us/event/4125/peak-city-pig-fest
p1220
aVhttp://www.kcbs.us/event/4161/2nd-annual-pechanga-bbq-championship
p1221
aVhttp://www.kcbs.us/event/4224/sams-club-national-bbq-tour
p1222
aVhttp://www.kcbs.us/event/4388/battle-of-the-bones-cancelled
p1223
aVhttp://www.kcbs.us/event/4305/brockport-bbq---music-festival
p1224
aVhttp://www.kcbs.us/event/4306/smokin-the-ballpark-bbq-festival
p1225
aVhttp://www.kcbs.us/event/4310/queen-city-cook-off
p1226
aVhttp://www.kcbs.us/event/3817/mr-bbq-barbeque-challenge
p1227
aVhttp://www.kcbs.us/event/4073/safeway-national-capital-barbecue-battle
p1228
aVhttp://www.kcbs.us/event/3986/legacy-bbq-championship
p1229
aVhttp://www.kcbs.us/event/3680/super-city-blues-ques
p1230
aVhttp://www.kcbs.us/event/3816/smokin-on-the-pecos
p1231
aVhttp://www.kcbs.us/event/3839/hogging-up-virginia-bluegrass-bbq-festival-judges-full
p1232
aVhttp://www.kcbs.us/event/3886/grillin-in-grafton
p1233
aVhttp://www.kcbs.us/event/3942/smoke-on-the-square-in-memory-of-david-harness
p1234
aVhttp://www.kcbs.us/event/3963/covington-cork-and-pork-festival
p1235
aVhttp://www.kcbs.us/event/4128/bend-of-the-river-bbq-smoke-off
p1236
aVhttp://www.kcbs.us/event/4129/boston-hill-bbq-fest
p1237
aVhttp://www.kcbs.us/event/4130/silicon-valley-bbq-championships
p1238
aVhttp://www.kcbs.us/event/4225/sams-club-national-bbq-tour
p1239
aVhttp://www.kcbs.us/event/3812/whiting-4th-of-july-bbq-cookoff
p1240
aVhttp://www.kcbs.us/event/3848/liberty-4th-fest-bbq-contest
p1241
aVhttp://www.kcbs.us/event/3861/i-love-barbecue-music-festival
p1242
aVhttp://www.kcbs.us/event/3891/rio-rancho-nm-10th-annual-2013-pork-brew-state-bbq-championship
p1243
aVhttp://www.kcbs.us/event/3927/smokin-hot-bbq-and-fireworks-cancelled
p1244
aVhttp://www.kcbs.us/event/4094/crossroads-bbq-cook-off
p1245
aVhttp://www.kcbs.us/event/4226/sams-club-national-bbq-tour
p1246
aVhttp://www.kcbs.us/event/4279/firin-up-the-fox-bbq-contest
p1247
aVhttp://www.kcbs.us/event/4363/fin-to-furs-red-white-blue-bbq-blowout-2013
p1248
aVhttp://www.kcbs.us/event/4368/montana-bbq-cook-off
p1249
aVhttp://www.kcbs.us/event/3931/sc-festival-of-discovery
p1250
aVhttp://www.kcbs.us/event/3868/ohio-veterans-barbeque-cook-off
p1251
aVhttp://www.kcbs.us/event/3916/the-gettysburg-cook-off-north-vs-south
p1252
aVhttp://www.kcbs.us/event/3993/the-madelia-blazin-barbeque-blast
p1253
aVhttp://www.kcbs.us/event/4096/6th-annual-wellsville-bbq-cookoff
p1254
aVhttp://www.kcbs.us/event/4157/3rd-annual-holbrook
p1255
aVhttp://www.kcbs.us/event/4177/wine-country-big-q
p1256
aVhttp://www.kcbs.us/event/4190/new-jersey-state-barbecue-championship
p1257
aVhttp://www.kcbs.us/event/4227/sams-club-national-bbq-tour
p1258
aVhttp://www.kcbs.us/event/4372/backyard-bbq-bash-cook-off-cancelled
p1259
aVhttp://www.kcbs.us/event/4045/heart-of-illinois-fair-bbq-cookoff
p1260
aVhttp://www.kcbs.us/event/4121/troy-pig-out
p1261
aVhttp://www.kcbs.us/event/4362/cattlemens-bbq-competition
p1262
aVhttp://www.kcbs.us/event/4421/pork-in-the-park-bbq
p1263
aVhttp://www.kcbs.us/event/3860/blues-bbq-bargains
p1264
aVhttp://www.kcbs.us/event/3889/warren-all-american-bbq-festival
p1265
aVhttp://www.kcbs.us/event/3906/smokin-the-valley-blueberry-festival-and-bar-b-que-cook-off
p1266
aVhttp://www.kcbs.us/event/3926/grillers-cup
p1267
aVhttp://www.kcbs.us/event/4005/the-great-grayling-barbecue-showdown-cancelled
p1268
aVhttp://www.kcbs.us/event/4021/que-cruz
p1269
aVhttp://www.kcbs.us/event/4044/bbqloo-blues-too
p1270
aVhttp://www.kcbs.us/event/4054/cookin-on-kampeska-wing-fling-bbq-thing
p1271
aVhttp://www.kcbs.us/event/4062/9th-annual-wildblue-bbq
p1272
aVhttp://www.kcbs.us/event/4088/smokin-on-the-river
p1273
aVhttp://www.kcbs.us/event/4163/wine-brew-bar-b-que-too
p1274
aVhttp://www.kcbs.us/event/4228/sams-club-national-bbq-tour
p1275
aVhttp://www.kcbs.us/event/4303/riverfest-red-white-and-que
p1276
aVhttp://www.kcbs.us/event/4309/taste-of-grand-rapids
p1277
aVhttp://www.kcbs.us/event/4367/smoke-on-the-mountain---va-state-bbq-championship
p1278
aVhttp://www.kcbs.us/event/3987/wakefield-rotary-campus-cookoff-state-bbq-championships
p1279
aVhttp://www.kcbs.us/event/4311/kla-ha-ya-days-barbeque-championship
p1280
aVhttp://www.kcbs.us/event/4360/smokin-for-gold
p1281
aVhttp://www.kcbs.us/event/3752/wnc-barbeque-festival
p1282
aVhttp://www.kcbs.us/event/3789/smoking-on-the-continental-divide-cancelled
p1283
aVhttp://www.kcbs.us/event/3794/montana-state-championship-fire-up-your-hog-bbq-competition-cancelled
p1284
aVhttp://www.kcbs.us/event/3831/foothills-country-fair-bbq-bash
p1285
aVhttp://www.kcbs.us/event/3901/up-in-smoke-bbq-bash
p1286
aVhttp://www.kcbs.us/event/3934/siskiyou-beef-country-cook-off
p1287
aVhttp://www.kcbs.us/event/4064/morton-bbq-throwdown-teams-judges-full---may-email-to-be-put-on-waitlist
p1288
aVhttp://www.kcbs.us/event/4067/the-harpoon-championships-of-new-england-bbq
p1289
aVhttp://www.kcbs.us/event/4118/dodge-city-days-barbeque-cook-off
p1290
aVhttp://www.kcbs.us/event/4167/bluemont-bbq-bash-blackberry-bonanza
p1291
aVhttp://www.kcbs.us/event/4249/racing-for-the-bbq
p1292
aVhttp://www.kcbs.us/event/4417/the-great-american-cookoff
p1293
aVhttp://www.kcbs.us/event/3596/big-bear-bbq-beerfest-cancelled
p1294
aVhttp://www.kcbs.us/event/3994/wheels-n-squeels-bbq-challenge
p1295
aVhttp://www.kcbs.us/event/3842/laurie-hillbilly-bbq
p1296
aVhttp://www.kcbs.us/event/3911/colorado-state-bbq-championship-cancelled
p1297
aVhttp://www.kcbs.us/event/3937/united-wireless-five-state-fair-bbq
p1298
aVhttp://www.kcbs.us/event/4065/5th-annual-vista-smokin-q-classic
p1299
aVhttp://www.kcbs.us/event/4166/dillard-bluegrass-barbeque-festival-gbc-qualifier
p1300
aVhttp://www.kcbs.us/event/4229/sams-club-national-bbq-tour-regional
p1301
aVhttp://www.kcbs.us/event/4407/smokin-on-route-66
p1302
aVhttp://www.kcbs.us/event/4412/great-northern-barbeque
p1303
aVhttp://www.kcbs.us/event/4452/rossville-tall-corn-bbq-contest
p1304
aVhttp://www.kcbs.us/event/3999/casas-grab-root-and-growl-bbq-competition
p1305
aVhttp://www.kcbs.us/event/4097/smokin-in-mcminnville
p1306
aVhttp://www.kcbs.us/event/4103/krystal-93-bbq-at-the-summit-cancelled
p1307
aVhttp://www.kcbs.us/event/4126/cass-county
p1308
aVhttp://www.kcbs.us/event/4165/smokin-on-the-prairie
p1309
aVhttp://www.kcbs.us/event/4196/med-city-bbq-musicfest
p1310
aVhttp://www.kcbs.us/event/4220/sams-club-national-bbq-tour
p1311
aVhttp://www.kcbs.us/event/4252/mountain-high-bbq-festival-car-show
p1312
aVhttp://www.kcbs.us/event/4282/12th-annual-maryland-state-bbq-bash
p1313
aVhttp://www.kcbs.us/event/4337/dam-good-bbq-championship
p1314
aVhttp://www.kcbs.us/event/4371/smokin-eagles-international-bbq-festival
p1315
aVhttp://www.kcbs.us/event/4398/brentwood-cook-off-and-car-show
p1316
aVhttp://www.kcbs.us/event/4283/montana-state-bbq-championships-at-montana-fair
p1317
aVhttp://www.kcbs.us/event/3888/conifer-mountain-bbq-challenge
p1318
aVhttp://www.kcbs.us/event/3896/9th-annual-pepsi-wyoming-state-bbq-bluegrass-festival
p1319
aVhttp://www.kcbs.us/event/3903/mountain-maryland-bbq-cancelled
p1320
aVhttp://www.kcbs.us/event/3909/21st-annual-state-barbeque-championship-of-nebraska
p1321
aVhttp://www.kcbs.us/event/3980/classic-city-bbq-fest-tailgate-show-gbc-qualifier
p1322
aVhttp://www.kcbs.us/event/3985/ribs-pigs-watermelons
p1323
aVhttp://www.kcbs.us/event/4042/hudson-valley-ribfest
p1324
aVhttp://www.kcbs.us/event/4074/stand-by-your-grill
p1325
aVhttp://www.kcbs.us/event/4221/sams-club-national-bbq-tour
p1326
aVhttp://www.kcbs.us/event/4234/smokefest
p1327
aVhttp://www.kcbs.us/event/4256/madison-ribberfest-barbeque-blues
p1328
aVhttp://www.kcbs.us/event/4281/bbq-and-fly-in-on-the-river
p1329
aVhttp://www.kcbs.us/event/4424/lynch-livestock-pig-stampede
p1330
aVhttp://www.kcbs.us/event/4289/winnipeg-barbeque-and-blues-festival
p1331
aVhttp://www.kcbs.us/event/4386/bbq-at-the-races-kansas-speedway
p1332
aVhttp://www.kcbs.us/event/4455/i-grill-because-i-care-competitors-series
p1333
aVhttp://www.kcbs.us/event/4356/kansas-city-kosher-bbq-competition-festival-competitors-series
p1334
aVhttp://www.kcbs.us/event/3875/deaths-door-barbecue
p1335
aVhttp://www.kcbs.us/event/3881/new-holland-summer-fest
p1336
aVhttp://www.kcbs.us/event/3890/up-in-smoke-on-the-square
p1337
aVhttp://www.kcbs.us/event/3925/when-pigs-fly-bbq-contest-fly-in
p1338
aVhttp://www.kcbs.us/event/3935/pigs-and-peaches-bbq-festival-gbc-qualifier
p1339
aVhttp://www.kcbs.us/event/3955/blues-brews-barbecues
p1340
aVhttp://www.kcbs.us/event/3991/great-southern-tailgate-cook-off
p1341
aVhttp://www.kcbs.us/event/4023/6th-annual-big-island-bbq
p1342
aVhttp://www.kcbs.us/event/4080/holy-smoke-bbq-contest
p1343
aVhttp://www.kcbs.us/event/4091/flinthills-beef-fest-bbq
p1344
aVhttp://www.kcbs.us/event/4092/nevada-kiwanis-bbq-contest
p1345
aVhttp://www.kcbs.us/event/4116/smokin-on-the-water
p1346
aVhttp://www.kcbs.us/event/4122/music-city-festival-bbq-championship
p1347
aVhttp://www.kcbs.us/event/4160/sooiet-relief-bbq-benefit
p1348
aVhttp://www.kcbs.us/event/4162/4th-annual-golden-acorn-casino-bbq-championship
p1349
aVhttp://www.kcbs.us/event/4164/grill-games
p1350
aVhttp://www.kcbs.us/event/4222/sams-club-national-bbq-tour
p1351
aVhttp://www.kcbs.us/event/4245/east-central-state-bbq-cook-off-paola-roots-festival
p1352
aVhttp://www.kcbs.us/event/4251/roast-n-boast
p1353
aVhttp://www.kcbs.us/event/4261/benton-county-fair-bbq-contest
p1354
aVhttp://www.kcbs.us/event/4292/blue-ridge-bbq-and-music-festival
p1355
aVhttp://www.kcbs.us/event/4293/smokin-on-oak
p1356
aVhttp://www.kcbs.us/event/4344/cape-jaycees-bbq-fest
p1357
aVhttp://www.kcbs.us/event/4373/1st-annual-hill-city-wine-brew-bbq
p1358
aVhttp://www.kcbs.us/event/4382/wild-west-bbq-shoot-out
p1359
aVhttp://www.kcbs.us/event/4413/bootleggin-bbq
p1360
aVhttp://www.kcbs.us/event/4089/park-city-bbq-state-championship-cancelled
p1361
aVhttp://www.kcbs.us/event/4194/four-state-bbq-championship-presented-by-downstream-casino
p1362
aVhttp://www.kcbs.us/event/4238/smokin-brew-bbq
p1363
aVhttp://www.kcbs.us/event/4257/3rd-annual-smokin-in-the-bogs
p1364
aVhttp://www.kcbs.us/event/3951/thunder-in-the-park
p1365
aVhttp://www.kcbs.us/event/4036/septemberfest-bbq-ribeye-steak-cookoff-challenge
p1366
aVhttp://www.kcbs.us/event/4093/smokin-in-mesquite-bbq-championship
p1367
aVhttp://www.kcbs.us/event/4145/smokin-on-the-bay-cancelled
p1368
aVhttp://www.kcbs.us/event/4235/city-of-bedford-blues-bbq-festival
p1369
aVhttp://www.kcbs.us/event/4286/blue-water-blues-brews-bbq-cancelled
p1370
aVhttp://www.kcbs.us/event/4350/bbq-on-the-bow
p1371
aVhttp://www.kcbs.us/event/4415/blues-views-and-bbq-competitors-series
p1372
aVhttp://www.kcbs.us/event/3915/recovery-fest-2013
p1373
aVhttp://www.kcbs.us/event/3932/showdown-on-the-plains-bbq-challenge-air-show
p1374
aVhttp://www.kcbs.us/event/4011/pickin-in-the-panhandle
p1375
aVhttp://www.kcbs.us/event/4013/ribs-rods-rock-n-roll
p1376
aVhttp://www.kcbs.us/event/4061/smoke-on-the-river
p1377
aVhttp://www.kcbs.us/event/4068/puckaway-pigfest
p1378
aVhttp://www.kcbs.us/event/4110/cookeville-cookoff
p1379
aVhttp://www.kcbs.us/event/4308/5th-annual-southern-york-county-bbq-cookoff
p1380
aVhttp://www.kcbs.us/event/4178/bands-bbq-at-the-point
p1381
aVhttp://www.kcbs.us/event/4223/sams-club-national-bbq-tour-regional
p1382
aVhttp://www.kcbs.us/event/4280/san-luis-valley-beat-the-heat-brews-barbecue-chili-challenge
p1383
aVhttp://www.kcbs.us/event/4353/blue-springs-barbeque-blaze-off
p1384
aVhttp://www.kcbs.us/event/4364/national-bar-b-que-derby
p1385
aVhttp://www.kcbs.us/event/4425/best-of-the-west-bbq-fest
p1386
aVhttp://www.kcbs.us/event/4040/skys-the-limit-bbq-classic
p1387
aVhttp://www.kcbs.us/event/4182/red-white-and-que
p1388
aVhttp://www.kcbs.us/event/3862/cherokee-strip-cook-off
p1389
aVhttp://www.kcbs.us/event/3913/silver-lake-apple-bbq-festival
p1390
aVhttp://www.kcbs.us/event/3924/colorado-pork-hops-challenge
p1391
aVhttp://www.kcbs.us/event/3949/decatur-jaycees-19th-annual-riverfest
p1392
aVhttp://www.kcbs.us/event/3972/5th-annual-hay-capital-bbq-cook-off
p1393
aVhttp://www.kcbs.us/event/4008/rubstock-bbq-championship-a-groovin-time-in-the-foothills
p1394
aVhttp://www.kcbs.us/event/4022/atlanta-barb-q-festival
p1395
aVhttp://www.kcbs.us/event/4031/ktd-smokin-gobbler-cook-off
p1396
aVhttp://www.kcbs.us/event/4037/jug-tavern-festival-gbc-qualifier
p1397
aVhttp://www.kcbs.us/event/4053/battle-of-the-brisket
p1398
aVhttp://www.kcbs.us/event/4141/international-goat-days-festival-bbq-bash
p1399
aVhttp://www.kcbs.us/event/4204/sams-club-national-bbq-tour-regional
p1400
aVhttp://www.kcbs.us/event/4266/q-the-lou
p1401
aVhttp://www.kcbs.us/event/4369/black-dog-music-and-que-festival
p1402
aVhttp://www.kcbs.us/event/4395/bucksaw-band-bbq
p1403
aVhttp://www.kcbs.us/event/4399/smoke-on-the-snake-cancelled
p1404
aVhttp://www.kcbs.us/event/4428/leavenworths-hog-wild-west-bbq-contest
p1405
aVhttp://www.kcbs.us/event/4457/island-fest-cancelled
p1406
aVhttp://www.kcbs.us/event/4107/harvard-fall-festival-bbq-contest
p1407
aVhttp://www.kcbs.us/event/3954/murphysboro-barbecue-cook-off
p1408
aVhttp://www.kcbs.us/event/4370/st-leon-bbq-smokefest
p1409
aVhttp://www.kcbs.us/event/3880/tilley-harley-davidson-biker-blues-bbq-rally-and-bbq-classic
p1410
aVhttp://www.kcbs.us/event/4384/bricks-brons-bbq
p1411
aVhttp://www.kcbs.us/event/4052/hogs-hops-dover
p1412
aVhttp://www.kcbs.us/event/4109/art-of-bbq-cancelled
p1413
aVhttp://www.kcbs.us/event/4170/marshall-county
p1414
aVhttp://www.kcbs.us/event/4191/taste-of-autumn-bbq-cook-off
p1415
aVhttp://www.kcbs.us/event/4195/oinktoberfest
p1416
aVhttp://www.kcbs.us/event/4232/jesse-james-barbeque-cook-out
p1417
aVhttp://www.kcbs.us/event/4304/kings-of-bbq-2013
p1418
aVhttp://www.kcbs.us/event/4316/bikes-blues-bbq
p1419
aVhttp://www.kcbs.us/event/4358/smokin-on-the-track-bbq
p1420
aVhttp://www.kcbs.us/event/4396/herington-rail-n-trails-bbq-festival-cancelled
p1421
aVhttp://www.kcbs.us/event/4403/utah-bbq-festival
p1422
aVhttp://www.kcbs.us/event/4446/anne-springs-close-greenway-bbq-bluegrass-festival-competitors-series
p1423
aVhttp://www.kcbs.us/event/4486/smokin-aces-bbq-festival
p1424
aVhttp://www.kcbs.us/event/4071/telluride-barbeque-festival
p1425
aVhttp://www.kcbs.us/event/4231/que-by-the-sea
p1426
aVhttp://www.kcbs.us/event/3930/hermann-bbq-brats-festival
p1427
aVhttp://www.kcbs.us/event/3974/jim-bowie-bbq-throwdown
p1428
aVhttp://www.kcbs.us/event/3981/porktoberque
p1429
aVhttp://www.kcbs.us/event/3998/piggin-around
p1430
aVhttp://www.kcbs.us/event/4108/downtown-jonesboro-bbq-fest
p1431
aVhttp://www.kcbs.us/event/4120/taste-of-downtown-danville-bbq-competition
p1432
aVhttp://www.kcbs.us/event/4124/ohio-veteran-battle-of-the-barbecue
p1433
aVhttp://www.kcbs.us/event/4359/rhythm-n-q-bbq-festival-cancelled
p1434
aVhttp://www.kcbs.us/event/4216/sams-club-national-bbq-tour
p1435
aVhttp://www.kcbs.us/event/4248/ak-sar-bens-river-city-rodeo-stock-show
p1436
aVhttp://www.kcbs.us/event/4250/grillin-and-chillin-bbq
p1437
aVhttp://www.kcbs.us/event/4318/shawnee-great-grillers-state-championship
p1438
aVhttp://www.kcbs.us/event/4400/avi-resort-casino-music-brews-bbq-championship
p1439
aVhttp://www.kcbs.us/event/4422/community-fisrt-bank-bbq-competition-team-spots-still-available
p1440
aVhttp://www.kcbs.us/event/4366/whole-hawg-happenin
p1441
aVhttp://www.kcbs.us/event/4404/the-best-bbq-chef-competition
p1442
aVhttp://www.kcbs.us/event/4335/34th-annual-american-royal-world-series-of-barbecue-open
p1443
aVhttp://www.kcbs.us/event/4336/34th-annual-american-royal-world-series-of-barbecue-invitational
p1444
aVhttp://www.kcbs.us/event/3921/jim-beam-bbq-classic
p1445
aVhttp://www.kcbs.us/event/3964/dana-point-state-bbq-championship
p1446
aVhttp://www.kcbs.us/event/4066/keystone-classic-barbeque
p1447
aVhttp://www.kcbs.us/event/4357/city-of-earlington-octoberfest
p1448
aVhttp://www.kcbs.us/event/4381/biggest-buck-and-best-rack
p1449
aVhttp://www.kcbs.us/event/4385/kc-hog-wild-corinth-bbq
p1450
aVhttp://www.kcbs.us/event/4394/bluff-city-octoberfest-cancelled
p1451
aVhttp://www.kcbs.us/event/4423/squealin-on-the-square
p1452
aVhttp://www.kcbs.us/event/4427/do-ac-smokin-hot-atlantic-city-bbq-championship
p1453
aVhttp://www.kcbs.us/event/4512/music-city-southern-hotwing-festival
p1454
aVhttp://www.kcbs.us/event/3940/anchor-city-cook-off
p1455
aVhttp://www.kcbs.us/event/3969/chillin-grillin-bbq-festival
p1456
aVhttp://www.kcbs.us/event/4043/the-real-squeal-lyons-barbeque-music-festival-gbc-qualifier
p1457
aVhttp://www.kcbs.us/event/4056/cookin-on-the-kaw
p1458
aVhttp://www.kcbs.us/event/4090/riverside-blues-bbq-festival
p1459
aVhttp://www.kcbs.us/event/4098/bliss-brews-que
p1460
aVhttp://www.kcbs.us/event/4123/eastern-carolina-bbq-throw-down
p1461
aVhttp://www.kcbs.us/event/4168/waxhaw-grilln-and-chilln-bbq-cook-off
p1462
aVhttp://www.kcbs.us/event/4169/cullman-oktoberfest-bbq-challenge
p1463
aVhttp://www.kcbs.us/event/4217/sams-club-national-bbq-tour-regional
p1464
aVhttp://www.kcbs.us/event/4284/wahabi-shriners-cancelled
p1465
aVhttp://www.kcbs.us/event/4290/smoke-on-the-water
p1466
aVhttp://www.kcbs.us/event/4334/3rd-annual-high-point-bbq
p1467
aVhttp://www.kcbs.us/event/4351/central-illinois-bragging-rights
p1468
aVhttp://www.kcbs.us/event/4410/smoke-n-thunder-bbq-classic
p1469
aVhttp://www.kcbs.us/event/4478/rhythm-ribs
p1470
aVhttp://www.kcbs.us/event/4522/5th-annual-future-legends-of-bbq-competition-competitors-seriescancelled
p1471
aVhttp://www.kcbs.us/event/3971/big-buffalo-crossing-bbq-cook-off
p1472
aVhttp://www.kcbs.us/event/4055/balloons-blues-bikes-bbq
p1473
aVhttp://www.kcbs.us/event/4072/kick-in-the-butt-bbq-competition-cancelled
p1474
aVhttp://www.kcbs.us/event/4095/8th-annual-lambs-farm-barn-burner-bar-b-q-teams-full
p1475
aVhttp://www.kcbs.us/event/4099/ohio-smoke-meat-festival
p1476
aVhttp://www.kcbs.us/event/4102/swine-dandy-charity-cookoff-gbc-qualifiercancelled
p1477
aVhttp://www.kcbs.us/event/4230/sams-club-national-bbq-tour-championship
p1478
aVhttp://www.kcbs.us/event/4262/autumnfest
p1479
aVhttp://www.kcbs.us/event/4278/fountains-blaze-off-and-senior-q
p1480
aVhttp://www.kcbs.us/event/4333/bikes-balloons-bbq
p1481
aVhttp://www.kcbs.us/event/4338/autumn-blaze-bbq-smoke-off-state-championship-contest
p1482
aVhttp://www.kcbs.us/event/4387/a-smokin-good-time
p1483
aVhttp://www.kcbs.us/event/4397/cowboy-up-at-the-prca-rodeo-bbq
p1484
aVhttp://www.kcbs.us/event/4409/slab-yo-mama-barbeque-cancelled
p1485
aVhttp://www.kcbs.us/event/4470/bbq-masters-in-the-woods-cancelled
p1486
aVhttp://www.kcbs.us/event/4474/sons-of-the-american-legion-red-white-and-blue-bbq
p1487
aVhttp://www.kcbs.us/event/4078/13th-annual-bordertown-bash
p1488
aVhttp://www.kcbs.us/event/3953/smokin-the-fort
p1489
aVhttp://www.kcbs.us/event/3976/border-war-barbecue
p1490
aVhttp://www.kcbs.us/event/4057/hillbilly-hog-bbq-throwdown-fall-leaf-festival-gbc-qualifier
p1491
aVhttp://www.kcbs.us/event/4274/bates-county-bbq-state-championship
p1492
aVhttp://www.kcbs.us/event/4438/jack-daniels-world-championship-invitational-barbecue-judges-by-invitation-only
p1493
aVhttp://www.kcbs.us/event/4039/liberty-tree-bbq-festival
p1494
aVhttp://www.kcbs.us/event/4297/riverside-resort-casino-usa-barbecue-championship
p1495
aVhttp://www.kcbs.us/event/4019/hog-happnin
p1496
aVhttp://www.kcbs.us/event/4082/cookin-on-the-creek-bbq-cookoff
p1497
aVhttp://www.kcbs.us/event/4383/world-food-championships---world-barbecue-championshipcompetitors-series
p1498
aVhttp://www.kcbs.us/event/4402/1st-annual-bbq-bivouac
p1499
aVhttp://www.kcbs.us/event/4085/the-national-bbq-cup-gbc-qualifier
p1500
aVhttp://www.kcbs.us/event/4401/smoke-on-the-harbor-bbq-throwdown
p1501
aVhttp://www.kcbs.us/event/4419/when-pigs-fly-south
p1502
aVhttp://www.kcbs.us/event/3773/moolah-shriners-november-to-remember-bbq-cookoff-cancelled
p1503
aVhttp://www.kcbs.us/event/4114/plant-city-pig-jam
p1504
aVhttp://www.kcbs.us/event/4439/kanza-bowl-bbq-and-blues-cancelled
p1505
aVhttp://www.kcbs.us/event/4035/christmas-on-the-river-state-championship
p1506
aVhttp://www.kcbs.us/event/4134/calhoun-koas-gbc-qualifier
p1507
aVhttp://www.kcbs.us/event/4342/big-poppa-smokers---king-of-the-smoker-invitational-judges-full
p1508
aVhttp://www.kcbs.us/event/4529/downtown-throw-down-barbecue-championship
p1509
aVhttp://www.kcbs.us/event/4533/4th-annual-wild-wild-west-bbq-championship
p1510
aVhttp://www.kcbs.us/event/4534/4th-annual-wild-wild-west-bbq-championship-day-2
p1511
asI2014
(lp1512
Vhttp://www.kcbs.us/event/4504/5th-annual-lake-havasu-music-brews-bbq-championshipcancelled
p1513
aVhttp://www.kcbs.us/event/4572/the-tiger-town-pig-festival
p1514
aVhttp://www.kcbs.us/event/4487/brasstown-valleys-bbq-throwdown-gbc-qualifier
p1515
aVhttp://www.kcbs.us/event/4640/kansas-winter-q-cancelled
p1516
aVhttp://www.kcbs.us/event/4497/cattlemens-caribbean-bbq-competition
p1517
aVhttp://www.kcbs.us/event/4878/the-guinea-pig-competitors-series
p1518
aVhttp://www.kcbs.us/event/4925/sams-club-national-bbq-tour
p1519
aVhttp://www.kcbs.us/event/4458/shotgun-fred-bbq-showdown
p1520
aVhttp://www.kcbs.us/event/4802/havasu-landing-california-bbq-championship
p1521
aVhttp://www.kcbs.us/event/4926/sams-club-national-bbq-tour
p1522
aVhttp://www.kcbs.us/event/4485/smokin-in-the-square
p1523
aVhttp://www.kcbs.us/event/4906/nbbqa-bbq-bash-cook-off
p1524
aVhttp://www.kcbs.us/event/4931/sams-club-national-bbq-tour
p1525
aVhttp://www.kcbs.us/event/4466/dont-be-cruel-bbq-duel-benefiting-link-centre
p1526
aVhttp://www.kcbs.us/event/4523/heatin-up-the-bricks-cancelled
p1527
aVhttp://www.kcbs.us/event/4638/flames-on-the-flint-sbbqa
p1528
aVhttp://www.kcbs.us/event/4665/smokin-at-the-run-shootout
p1529
aVhttp://www.kcbs.us/event/4666/smokin-at-the-run-shootout
p1530
aVhttp://www.kcbs.us/event/4834/nkc-mo-state-championship-bbq
p1531
aVhttp://www.kcbs.us/event/4932/sams-club-national-bbq-tour
p1532
aVhttp://www.kcbs.us/event/4667/smokin-at-the-run
p1533
aVhttp://www.kcbs.us/event/4670/hammond-bbq
p1534
aVhttp://www.kcbs.us/event/4888/3rd-annual-santa-anita-winners-circle-bbq-championship
p1535
aVhttp://www.kcbs.us/event/4943/sams-club-national-bbq-tour
p1536
aVhttp://www.kcbs.us/event/4809/bbq-throw-down-2014-windcreek
p1537
aVhttp://www.kcbs.us/event/4444/firelake-bbq-cook-off
p1538
aVhttp://www.kcbs.us/event/4506/fire-ant-festival-bbq-bash-sbbqa
p1539
aVhttp://www.kcbs.us/event/4785/grills-gone-wild-bbq-festival
p1540
aVhttp://www.kcbs.us/event/4944/sams-club-national-bbq-tour
p1541
aVhttp://www.kcbs.us/event/4449/smokin-on-the-river-gbc-sbbqa-qualifier
p1542
aVhttp://www.kcbs.us/event/4744/2nd-annual-parkinsons-smoke-out
p1543
aVhttp://www.kcbs.us/event/4493/que-at-the-view
p1544
aVhttp://www.kcbs.us/event/4507/fourth-annual-bull-moose
p1545
aVhttp://www.kcbs.us/event/4514/kennett-jaycees-show-me-state-bbq-cookoff
p1546
aVhttp://www.kcbs.us/event/4519/cedar-fest-bbq-cook-off-teams-full
p1547
aVhttp://www.kcbs.us/event/4528/benton-ky-kiwanis-barbeque-kookoff-cancelled
p1548
aVhttp://www.kcbs.us/event/4560/stillwater-elks-lodge-blazathon
p1549
aVhttp://www.kcbs.us/event/4650/smokin-on-big-creek---benefiting-operation-bbq-relief
p1550
aVhttp://www.kcbs.us/event/4874/rockahocks-pickin-and-pullin-festival
p1551
aVhttp://www.kcbs.us/event/4945/sams-club-national-bbq-tour
p1552
aVhttp://www.kcbs.us/event/4361/delawares-triple-threat-bbq-festival-at-the-fair
p1553
aVhttp://www.kcbs.us/event/4456/6th-annual-main-street-bbq-bluesfest
p1554
aVhttp://www.kcbs.us/event/4503/9th-annual-smokin-red-dirt-bbq
p1555
aVhttp://www.kcbs.us/event/4521/the-best-dam-bbq-contest-at-smithville-lake
p1556
aVhttp://www.kcbs.us/event/4690/smoke-in-the-spring
p1557
aVhttp://www.kcbs.us/event/4705/new-york-city-bbq-cookoff
p1558
aVhttp://www.kcbs.us/event/4742/kings-of-the-que-bbq-championship-cancelled
p1559
aVhttp://www.kcbs.us/event/4905/jammin-pig-bbq-musice-festival
p1560
aVhttp://www.kcbs.us/event/4946/sams-club-national-bbq-tour
p1561
aVhttp://www.kcbs.us/event/4962/smoke-on-the-falls-noccalula-bbq-fest
p1562
aVhttp://www.kcbs.us/event/4602/smokin-in-the-creek-bbq-cook-off-cancelled
p1563
aVhttp://www.kcbs.us/event/4612/high-on-the-hog-festival
p1564
aVhttp://www.kcbs.us/event/4659/cornelia-apple-blossom-bbq-festival-sbbqa
p1565
aVhttp://www.kcbs.us/event/4699/17th-annual-firehouse-bbq-cook-off
p1566
aVhttp://www.kcbs.us/event/4947/sams-club-national-bbq-tour
p1567
aVhttp://www.kcbs.us/event/4475/vfw-post-846-6th-annual-bbq-challenge-10-team-spots-still-available
p1568
aVhttp://www.kcbs.us/event/4480/bbq-boogie-blues-sbbqa
p1569
aVhttp://www.kcbs.us/event/4656/wabash-ribberfest-barbecue-championship
p1570
aVhttp://www.kcbs.us/event/4673/bbq-capital-cookoff
p1571
aVhttp://www.kcbs.us/event/4685/washington-state-spring-bbq-championship
p1572
aVhttp://www.kcbs.us/event/4751/pony-express-bbq-challenge
p1573
aVhttp://www.kcbs.us/event/4763/smokin-in-the-ozarks-cancelled
p1574
aVhttp://www.kcbs.us/event/4782/central-iowa-expo-bbq-cruise-brew
p1575
aVhttp://www.kcbs.us/event/4831/bynum-schools-best-of-the-basin-bbq-championship
p1576
aVhttp://www.kcbs.us/event/4838/smokin-n-the-ville
p1577
aVhttp://www.kcbs.us/event/4948/sams-club-national-bbq-tour-regional
p1578
aVhttp://www.kcbs.us/event/4591/smokin-in-mesquite-bbq-championship
p1579
aVhttp://www.kcbs.us/event/4783/central-iowa-expo-bbq-cruise-brew
p1580
aVhttp://www.kcbs.us/event/5024/southern-hotwing-festival
p1581
aVhttp://www.kcbs.us/event/5037/smoke-on-the-water-nevada-bbq-championship
p1582
aVhttp://www.kcbs.us/event/4500/george-county-firefighters-association-bbq-challenge
p1583
aVhttp://www.kcbs.us/event/4524/naptown-barbayq-contest-music-festival
p1584
aVhttp://www.kcbs.us/event/4563/smokelawn
p1585
aVhttp://www.kcbs.us/event/4564/truman-heritage-festival-10-team-spots-still-available
p1586
aVhttp://www.kcbs.us/event/4592/the-whistlestop-festival-rocket-city-bbq-judges-sign-up-starts-december-2-2013
p1587
aVhttp://www.kcbs.us/event/4628/the-masters-in-may
p1588
aVhttp://www.kcbs.us/event/4646/brew-blues-bar-b-q-cook-off
p1589
aVhttp://www.kcbs.us/event/4691/2nd-annual-show-low-bbq-throwdown
p1590
aVhttp://www.kcbs.us/event/4730/bixby-bbqn-blues-festival
p1591
aVhttp://www.kcbs.us/event/4739/columbia-elks-lodge-594-bbq-contest
p1592
aVhttp://www.kcbs.us/event/4740/elk-grove-western-festival-bbq-championship
p1593
aVhttp://www.kcbs.us/event/4791/nassau-bahamas-smokin-hot-bbq
p1594
aVhttp://www.kcbs.us/event/4843/apple-blossom-barbecue-contest
p1595
aVhttp://www.kcbs.us/event/4893/north-platte-honky-tonk-bbq-festival
p1596
aVhttp://www.kcbs.us/event/4895/battle-of-brandon-bbq-challenge
p1597
aVhttp://www.kcbs.us/event/4933/sams-club-national-bbq-tour
p1598
aVhttp://www.kcbs.us/event/4969/best-of-the-best-bbq-championship-boat-show
p1599
aVhttp://www.kcbs.us/event/5059/r-barbecue-contest-cancelled
p1600
aVhttp://www.kcbs.us/event/4579/smokin-on-the-water
p1601
aVhttp://www.kcbs.us/event/4694/ridgefield-gone-country-bbq-festival
p1602
aVhttp://www.kcbs.us/event/4462/jiggy-with-the-piggy-bbq-challenge
p1603
aVhttp://www.kcbs.us/event/4552/rockn-ribs-bbq-festival
p1604
aVhttp://www.kcbs.us/event/4556/mississippi-springfest
p1605
aVhttp://www.kcbs.us/event/4558/pork-in-the-park-bbq-festival
p1606
aVhttp://www.kcbs.us/event/4566/sertoma-48-bbq
p1607
aVhttp://www.kcbs.us/event/4574/boss-hog-state-championship-cook-off-gbc-qualifier
p1608
aVhttp://www.kcbs.us/event/4635/bbq-jamboree
p1609
aVhttp://www.kcbs.us/event/4661/roman-roast-on-the-river-sbbqa
p1610
aVhttp://www.kcbs.us/event/4728/boots-bbq-festival
p1611
aVhttp://www.kcbs.us/event/4731/west-coast-bbq-classic
p1612
aVhttp://www.kcbs.us/event/4735/smoke-in-the-valley-bbq-competition
p1613
aVhttp://www.kcbs.us/event/4793/wild-west-bbq
p1614
aVhttp://www.kcbs.us/event/4903/bbq-in-the-bluffs
p1615
aVhttp://www.kcbs.us/event/4934/sams-club-national-bbq-tour
p1616
aVhttp://www.kcbs.us/event/4682/beer-fries-bbq---the-belgian-low-slow-bbq-championship
p1617
aVhttp://www.kcbs.us/event/4701/the-polish-hungry-for-que-bbq-bash
p1618
aVhttp://www.kcbs.us/event/4490/grand-lake-bbq-festival
p1619
aVhttp://www.kcbs.us/event/4573/chesapeake-jubilee
p1620
aVhttp://www.kcbs.us/event/4576/bloomin-bbq-bluegrass
p1621
aVhttp://www.kcbs.us/event/4611/bakersfields-biggest-baddest-bbq-championship
p1622
aVhttp://www.kcbs.us/event/4702/minnesota-in-may
p1623
aVhttp://www.kcbs.us/event/4723/wheatstock-grill-off-peace-love-bbq
p1624
aVhttp://www.kcbs.us/event/4743/middletown-bbq-festival-cancelled
p1625
aVhttp://www.kcbs.us/event/4798/buckeye-state-bbq-championship
p1626
aVhttp://www.kcbs.us/event/4814/platte-city-bbq-cook-off
p1627
aVhttp://www.kcbs.us/event/4857/cotton-pickin-bbq-cookoff
p1628
aVhttp://www.kcbs.us/event/5056/table-rock-ribs
p1629
aVhttp://www.kcbs.us/event/4748/smokin-on-the-lake
p1630
aVhttp://www.kcbs.us/event/4488/10th-annual-best-dam-barbecue-challenge
p1631
aVhttp://www.kcbs.us/event/4535/the-ultimate-bbq-showdown-east-vs-west-v-cancelled
p1632
aVhttp://www.kcbs.us/event/4712/papa-joes-banjo-b-que-bluegrass-festival-gbc-sbbqa-qualifier
p1633
aVhttp://www.kcbs.us/event/4927/sams-club-national-bbq-tour
p1634
aVhttp://www.kcbs.us/event/5003/red-white-and-bbq
p1635
aVhttp://www.kcbs.us/event/4593/roc-city-rib-fest
p1636
aVhttp://www.kcbs.us/event/4595/red-white-and-bbq
p1637
aVhttp://www.kcbs.us/event/4596/bbq-blues-brews-on-the-bay
p1638
aVhttp://www.kcbs.us/event/4622/q-on-the-canal-2
p1639
aVhttp://www.kcbs.us/event/4649/sugar-mound-bbq-festival
p1640
aVhttp://www.kcbs.us/event/4764/smokin-in-the-junction
p1641
aVhttp://www.kcbs.us/event/4835/lewisburg-rotary-club-bbq-cookoff
p1642
aVhttp://www.kcbs.us/event/4520/the-rotary-club-of-west-knoxville---rocky-top-hummin-strummin-bbq-cook-off
p1643
aVhttp://www.kcbs.us/event/4527/smokin-in-steele
p1644
aVhttp://www.kcbs.us/event/4583/pig-and-a-jig-bbq-festival
p1645
aVhttp://www.kcbs.us/event/4662/3rd-annual-valley-veterans-barbecue-competition
p1646
aVhttp://www.kcbs.us/event/4746/chukchansi-gold-resort-casino-state-bbq-championship-cancelled
p1647
aVhttp://www.kcbs.us/event/4928/sams-club-national-bbq-tour
p1648
aVhttp://www.kcbs.us/event/5005/carnivores-classic
p1649
aVhttp://www.kcbs.us/event/5030/royal-gorge-holy-smoke-bbq-showdown
p1650
aVhttp://www.kcbs.us/event/4613/monadnock-up-in-smoke-bbq-beer-fest
p1651
aVhttp://www.kcbs.us/event/4536/bridge-city-bbq-fest-cancelled
p1652
aVhttp://www.kcbs.us/event/4537/mclouth-bbq-blowout-23rd-annual
p1653
aVhttp://www.kcbs.us/event/4668/variety-childrens-charity-barbeque-bash-cancelled
p1654
aVhttp://www.kcbs.us/event/4698/poor-que
p1655
aVhttp://www.kcbs.us/event/4711/3rd-annual-vc-music-fest-bbq
p1656
aVhttp://www.kcbs.us/event/4713/sd-bbq-championships
p1657
aVhttp://www.kcbs.us/event/4720/lincolnton-hog-happenin
p1658
aVhttp://www.kcbs.us/event/4804/smokin-on-the-summit
p1659
aVhttp://www.kcbs.us/event/4833/beltway-bbq-showdown
p1660
aVhttp://www.kcbs.us/event/4854/boats-bands-bbq
p1661
aVhttp://www.kcbs.us/event/4871/bourbon-city-bbq-festival-cookoff
p1662
aVhttp://www.kcbs.us/event/4909/que-for-the-troops
p1663
aVhttp://www.kcbs.us/event/4950/sams-club-national-bbq-tour
p1664
aVhttp://www.kcbs.us/event/4956/big-blue-bbq-championship
p1665
aVhttp://www.kcbs.us/event/4958/okfuskee-firefighters-wildfire-cookoff
p1666
aVhttp://www.kcbs.us/event/4975/euharlee-covered-bridge-que-gbc-qualifier
p1667
aVhttp://www.kcbs.us/event/4983/keepers-of-the-fire-bbq-contest
p1668
aVhttp://www.kcbs.us/event/5058/smokin-n-a-rollin
p1669
aVhttp://www.kcbs.us/event/4631/tony-stone-low-slow-bbq-competition
p1670
aVhttp://www.kcbs.us/event/4548/smoke-on-the-prairie
p1671
aVhttp://www.kcbs.us/event/4598/delta-smoke-bbq-contest
p1672
aVhttp://www.kcbs.us/event/4629/cowtown-cook-off
p1673
aVhttp://www.kcbs.us/event/4750/northern-arizona-bbq-festival
p1674
aVhttp://www.kcbs.us/event/4758/california-honey-harvest-festival-bbq-championship
p1675
aVhttp://www.kcbs.us/event/4760/blue-ridge-bbq-music-festival
p1676
aVhttp://www.kcbs.us/event/4766/crossborder-blues-brews-que
p1677
aVhttp://www.kcbs.us/event/4788/hog-and-steer-barbecue-competition-festival
p1678
aVhttp://www.kcbs.us/event/4797/smokin-on-the-river
p1679
aVhttp://www.kcbs.us/event/4812/tonganoxie-days-bbq-blowout
p1680
aVhttp://www.kcbs.us/event/4820/rockn-ribfest-nh-state-bbq-championship
p1681
aVhttp://www.kcbs.us/event/4860/21st-colorado-bbq-challenge
p1682
aVhttp://www.kcbs.us/event/4861/hayden-sunflower-bbq-championship-cancelled
p1683
aVhttp://www.kcbs.us/event/4949/sams-club-national-bbq-tour
p1684
aVhttp://www.kcbs.us/event/5094/grill-billies-bbq-show-down
p1685
aVhttp://www.kcbs.us/event/4543/2nd-annual-treasure-island-international-bbq-championship-cancelled
p1686
aVhttp://www.kcbs.us/event/5016/porkapalooza-bbq-festival
p1687
aVhttp://www.kcbs.us/event/5095/italian-barbecue-championship
p1688
aVhttp://www.kcbs.us/event/4489/2nd-annual-south-park-kick-ass-bbq-competition
p1689
aVhttp://www.kcbs.us/event/4510/6th-annual-auburn-hills-barbecue-cook-off
p1690
aVhttp://www.kcbs.us/event/4603/rockn-freedom
p1691
aVhttp://www.kcbs.us/event/4618/knights-of-columbus
p1692
aVhttp://www.kcbs.us/event/4652/pig-in-the-park
p1693
aVhttp://www.kcbs.us/event/4687/battle-of-the-bones
p1694
aVhttp://www.kcbs.us/event/4688/peak-city-pig-fest
p1695
aVhttp://www.kcbs.us/event/4703/ol-glory-bbq-bash
p1696
aVhttp://www.kcbs.us/event/4755/barbourville-bbq-festival
p1697
aVhttp://www.kcbs.us/event/4775/the-desoto-shrine-club-6th-annual-2014-bbq-cook-off
p1698
aVhttp://www.kcbs.us/event/4886/state-center-rose-festival-bbq-championship
p1699
aVhttp://www.kcbs.us/event/4929/sams-club-national-bbq-tour
p1700
aVhttp://www.kcbs.us/event/4970/3rd-annual-pechanga-bbq-championship
p1701
aVhttp://www.kcbs.us/event/5055/sun-bbq-fest
p1702
aVhttp://www.kcbs.us/event/4530/buckner-smoke-out-in-the-valley
p1703
aVhttp://www.kcbs.us/event/4616/mr-bbq-barbeque-challenge
p1704
aVhttp://www.kcbs.us/event/4693/safeway-national-capital-barbecue-battle
p1705
aVhttp://www.kcbs.us/event/5004/smokin-the-ball-park-bbq-festival
p1706
aVhttp://www.kcbs.us/event/4477/2nd-annual-freedom-feast-bbq-cook-off
p1707
aVhttp://www.kcbs.us/event/4715/high-desert-music-festival-and-bbq-showdown
p1708
aVhttp://www.kcbs.us/event/4821/legacy-state-bbq-championship-cook-off
p1709
aVhttp://www.kcbs.us/event/4482/grillin-in-grafton
p1710
aVhttp://www.kcbs.us/event/4499/bend-of-the-river-cookout
p1711
aVhttp://www.kcbs.us/event/4547/smokin-on-the-pecos
p1712
aVhttp://www.kcbs.us/event/4567/rockin-country-bbq-fest
p1713
aVhttp://www.kcbs.us/event/4578/hogging-up-bbq-festival
p1714
aVhttp://www.kcbs.us/event/4589/blount-county-bbq-bash
p1715
aVhttp://www.kcbs.us/event/4597/hog-wild-bbq-chrome-fest
p1716
aVhttp://www.kcbs.us/event/4627/2nd-annual-ribstock-mba-bbq-festival
p1717
aVhttp://www.kcbs.us/event/4708/smoke-on-the-square-in-memory-of-david-harness
p1718
aVhttp://www.kcbs.us/event/4721/super-city-blues-ques
p1719
aVhttp://www.kcbs.us/event/4725/silicon-valley-bbq-championships
p1720
aVhttp://www.kcbs.us/event/4818/great-lenexa-bbq-battle---kansas-state-championship
p1721
aVhttp://www.kcbs.us/event/4937/sams-club-national-bbq-tour
p1722
aVhttp://www.kcbs.us/event/5036/covington-cork-pork-festival
p1723
aVhttp://www.kcbs.us/event/4491/whiting-bbq-cookoff
p1724
aVhttp://www.kcbs.us/event/4532/liberty-4th-fest-bbq-contest
p1725
aVhttp://www.kcbs.us/event/4531/i-love-barbecue-music-festival
p1726
aVhttp://www.kcbs.us/event/4671/quen-in-the-park
p1727
aVhttp://www.kcbs.us/event/4727/pork-brew-bbq-state-championship
p1728
aVhttp://www.kcbs.us/event/4938/sams-club-national-bbq-tour
p1729
aVhttp://www.kcbs.us/event/4991/americas-bbq-brews-festival-2014-at-the-rose-bowlcancelled
p1730
aVhttp://www.kcbs.us/event/5060/sauce-and-cycles
p1731
aVhttp://www.kcbs.us/event/5086/fin-to-fur-red-white-and-blue-bbq-blowout
p1732
aVhttp://www.kcbs.us/event/4511/montana-bbq-cook-off
p1733
aVhttp://www.kcbs.us/event/4811/sc-festival-of-discovery
p1734
aVhttp://www.kcbs.us/event/4430/firin-up-the-fox-bbq-contest
p1735
aVhttp://www.kcbs.us/event/4461/1st-annual-bbq-throwdown-farm-festival-cancelled
p1736
aVhttp://www.kcbs.us/event/4647/gettysburg-chili-brew-and-bbq-2-cancelled-due-to-lack-of-sponsorships
p1737
aVhttp://www.kcbs.us/event/4653/the-madelia-blazin-barbeque-blast
p1738
aVhttp://www.kcbs.us/event/4717/13th-annual-bordertown-bash
p1739
aVhttp://www.kcbs.us/event/4729/7th-annual-wellsville-bbq-cookoff
p1740
aVhttp://www.kcbs.us/event/4737/wine-country-big-q
p1741
aVhttp://www.kcbs.us/event/4842/gold-ribbin-bbq-fest-of-greater-green-bay
p1742
aVhttp://www.kcbs.us/event/4864/8th-annual-ohio-veterans-bbq-cookoff
p1743
aVhttp://www.kcbs.us/event/4939/sams-club-national-bbq-tour
p1744
aVhttp://www.kcbs.us/event/5018/new-jersey-state-barbecue-championship
p1745
aVhttp://www.kcbs.us/event/5039/cowley-county-bbq-contest
p1746
aVhttp://www.kcbs.us/event/5097/johnson-county-fair-bbq
p1747
aVhttp://www.kcbs.us/event/5120/holbrook
p1748
aVhttp://www.kcbs.us/event/5048/pork-in-the-park
p1749
aVhttp://www.kcbs.us/event/4570/grillers-cup
p1750
aVhttp://www.kcbs.us/event/4963/ellinwood-after-harvest-festival-cancelled
p1751
aVhttp://www.kcbs.us/event/4481/on-the-mountain-bbq-and-beer-fest
p1752
aVhttp://www.kcbs.us/event/4492/riverfest-red-white-and-que
p1753
aVhttp://www.kcbs.us/event/4508/island-resort-and-casino-up-hog-wild-cancelled
p1754
aVhttp://www.kcbs.us/event/4551/warren-county-all-american-bbq-festival
p1755
aVhttp://www.kcbs.us/event/4605/cookin-on-kampeska
p1756
aVhttp://www.kcbs.us/event/4642/bbqloo-blues-too
p1757
aVhttp://www.kcbs.us/event/4734/smokin-on-the-river-cancelled
p1758
aVhttp://www.kcbs.us/event/4826/wakefield-rotary-campus-cook-off-state-bbq-championships
p1759
aVhttp://www.kcbs.us/event/4829/blues-bbq-bargains
p1760
aVhttp://www.kcbs.us/event/4863/wine-brew-bar-b-que-too
p1761
aVhttp://www.kcbs.us/event/4940/sams-club-national-bbq-tour
p1762
aVhttp://www.kcbs.us/event/4994/smoke-on-the-mountain---va-state-bbq-championship
p1763
aVhttp://www.kcbs.us/event/5070/10th-annual-wildblue-bbq
p1764
aVhttp://www.kcbs.us/event/5087/bucks-ducks-bbq
p1765
aVhttp://www.kcbs.us/event/4872/troy-pig-out
p1766
aVhttp://www.kcbs.us/event/4518/days-of-47-bbq-showdown
p1767
aVhttp://www.kcbs.us/event/5100/acf---gkcca-bbq-competition
p1768
aVhttp://www.kcbs.us/event/4599/morton-bbq-throwdown
p1769
aVhttp://www.kcbs.us/event/4660/wnc-bbq-festival
p1770
aVhttp://www.kcbs.us/event/4684/bbq-fest-cooking-contest
p1771
aVhttp://www.kcbs.us/event/4757/siskiyou-beef-country-cook-off
p1772
aVhttp://www.kcbs.us/event/4769/up-in-smoke-bbq-bash
p1773
aVhttp://www.kcbs.us/event/4781/6th-annual-vista-q-classic
p1774
aVhttp://www.kcbs.us/event/4815/smokin-hot-cars-bbq-at-the-allen-county-fair
p1775
aVhttp://www.kcbs.us/event/4862/foothills-country-fair-bbq-bash
p1776
aVhttp://www.kcbs.us/event/4894/dodge-city-days-barbeque-cook-off
p1777
aVhttp://www.kcbs.us/event/4911/harpoon-championships-of-new-england-bbq
p1778
aVhttp://www.kcbs.us/event/4941/sams-club-national-bbq-tour
p1779
aVhttp://www.kcbs.us/event/4971/racing-for-the-bbq
p1780
aVhttp://www.kcbs.us/event/5028/taste-of-grand-rapids-2014
p1781
aVhttp://www.kcbs.us/event/5032/colorado-rockies-invitational-bbq-championship-competitors-series
p1782
aVhttp://www.kcbs.us/event/5121/charcoal-for-charity-cancelled
p1783
aVhttp://www.kcbs.us/event/4494/laurie-hillbilly-bbq
p1784
aVhttp://www.kcbs.us/event/4565/united-wireless-five-state-fair-bbq
p1785
aVhttp://www.kcbs.us/event/4683/lynch-livestock-pig-stampede
p1786
aVhttp://www.kcbs.us/event/4695/the-slv-beat-the-heat-bbq-brews-and-chili-competition
p1787
aVhttp://www.kcbs.us/event/4807/wheels-n-squeels-bbq-challenge
p1788
aVhttp://www.kcbs.us/event/4865/oaktown-throwdown
p1789
aVhttp://www.kcbs.us/event/4887/dillard-bluegrass-barbeque-festival-gbc-qualifier
p1790
aVhttp://www.kcbs.us/event/4912/pigs-pedals
p1791
aVhttp://www.kcbs.us/event/4942/sams-club-national-bbq-tour-regional
p1792
aVhttp://www.kcbs.us/event/4967/southern-maryland-brew-bbq
p1793
aVhttp://www.kcbs.us/event/5023/rossville-tall-corn-bbq-contest
p1794
aVhttp://www.kcbs.us/event/5138/smoke-in-the-north
p1795
aVhttp://www.kcbs.us/event/4544/casas-grab-root-and-growl-bbq-competition
p1796
aVhttp://www.kcbs.us/event/4594/smokin-on-the-prairie
p1797
aVhttp://www.kcbs.us/event/4600/ribs-pigs-watermelons-day-1
p1798
aVhttp://www.kcbs.us/event/4686/cass-county
p1799
aVhttp://www.kcbs.us/event/4808/jimmys-roadhouse-bbq-championship
p1800
aVhttp://www.kcbs.us/event/4822/smokin-eagles-international-bbq-festival
p1801
aVhttp://www.kcbs.us/event/4827/mountain-high-bbq-festival-car-show
p1802
aVhttp://www.kcbs.us/event/4848/smokin-in-mcminnville
p1803
aVhttp://www.kcbs.us/event/4849/md-state-bbq-bash-presented-by-mars-super-markets
p1804
aVhttp://www.kcbs.us/event/4877/balloons-bbq-festival-at-kansas-speedway
p1805
aVhttp://www.kcbs.us/event/4951/sams-club-national-bbq-tour
p1806
aVhttp://www.kcbs.us/event/4980/med-city-bbq-musicfest
p1807
aVhttp://www.kcbs.us/event/4996/brentwood-cook-off-car-show
p1808
aVhttp://www.kcbs.us/event/5002/great-northern-bbq
p1809
aVhttp://www.kcbs.us/event/5013/smokin-with-woods
p1810
aVhttp://www.kcbs.us/event/5014/g2x-energy-3rd-annual-bbq-cook-off-cancelled
p1811
aVhttp://www.kcbs.us/event/4795/ribs-pigs-watermelons-day-2
p1812
aVhttp://www.kcbs.us/event/4964/montana-state-bbq-championship-at-montana-fair
p1813
aVhttp://www.kcbs.us/event/4719/classic-city-bbq-fest-tailgate-show-gbc-qualifier
p1814
aVhttp://www.kcbs.us/event/4546/wyoming-state-bbq-championship-bluegrass-festival
p1815
aVhttp://www.kcbs.us/event/4679/conifer-mountain-bbq-challenge
p1816
aVhttp://www.kcbs.us/event/4784/22nd-annual-state-barbeque-championship-of-nebraska
p1817
aVhttp://www.kcbs.us/event/4823/madison-ribberfest-bbq-blues-festival
p1818
aVhttp://www.kcbs.us/event/4840/smokefest
p1819
aVhttp://www.kcbs.us/event/4907/stand-by-your-grill
p1820
aVhttp://www.kcbs.us/event/4952/sams-club-national-bbq-tour
p1821
aVhttp://www.kcbs.us/event/4968/atlanta-barb-que-festival-sbbqa
p1822
aVhttp://www.kcbs.us/event/5072/bbq-and-fly-in-on-the-river
p1823
aVhttp://www.kcbs.us/event/5081/missouris-north-star-bbq-championship
p1824
aVhttp://www.kcbs.us/event/4636/hudson-valley-ribfest
p1825
aVhttp://www.kcbs.us/event/5144/winnipeg-barbeque-and-blues-festival
p1826
aVhttp://www.kcbs.us/event/4644/kansas-city-kosher-bbq-competition-and-festival-competitors-series
p1827
aVhttp://www.kcbs.us/event/4542/big-island-bbq
p1828
aVhttp://www.kcbs.us/event/4577/new-holland-summer-fest
p1829
aVhttp://www.kcbs.us/event/4617/deaths-door-barbecue
p1830
aVhttp://www.kcbs.us/event/4623/smokin-on-the-water
p1831
aVhttp://www.kcbs.us/event/4657/blues-brews-barbecue
p1832
aVhttp://www.kcbs.us/event/4678/when-pigs-fly-bbq-contest-fly-in
p1833
aVhttp://www.kcbs.us/event/4692/up-in-smoke-on-the-square
p1834
aVhttp://www.kcbs.us/event/4718/grill-games
p1835
aVhttp://www.kcbs.us/event/4732/hill-city-wine-brew-bbq
p1836
aVhttp://www.kcbs.us/event/4738/flint-hills-beef-fest-bbq
p1837
aVhttp://www.kcbs.us/event/4752/sooiet-relief-bbq-benefit
p1838
aVhttp://www.kcbs.us/event/4837/smokin-on-oak
p1839
aVhttp://www.kcbs.us/event/4856/blue-ridge-bbq-music-festival
p1840
aVhttp://www.kcbs.us/event/4866/pigs-and-peaches-bbq-festival-gbc-qualifier
p1841
aVhttp://www.kcbs.us/event/4867/great-southern-tailgate-cook-off
p1842
aVhttp://www.kcbs.us/event/4885/east-central-state-bbq-cook-off-paola-roots-festival
p1843
aVhttp://www.kcbs.us/event/4953/sams-club-national-bbq-tour
p1844
aVhttp://www.kcbs.us/event/4976/bootleggin-bbq
p1845
aVhttp://www.kcbs.us/event/4997/holy-smoke-bbq-contest
p1846
aVhttp://www.kcbs.us/event/5029/22nd-annual-cape-jaycees-bbq-fest
p1847
aVhttp://www.kcbs.us/event/5031/music-city-bbq-festival
p1848
aVhttp://www.kcbs.us/event/5125/dayton-pigfest-only-bbq-contest-is-cancelled
p1849
aVhttp://www.kcbs.us/event/5133/wild-west-bbq-shoot-out
p1850
aVhttp://www.kcbs.us/event/5152/va-bbq-championships
p1851
aVhttp://www.kcbs.us/event/5154/let-the-drums-roar-bbq-contest-competitors-series
p1852
aVhttp://www.kcbs.us/event/4365/chattanooga-river-cue-cancelled
p1853
aVhttp://www.kcbs.us/event/4747/4th-annual-smokin-in-the-bogs
p1854
aVhttp://www.kcbs.us/event/4954/sams-club-national-bbq-tour-regional
p1855
aVhttp://www.kcbs.us/event/5073/low-country-hog-fest
p1856
aVhttp://www.kcbs.us/event/5145/beach-boogie-and-barbeque
p1857
aVhttp://www.kcbs.us/event/5177/blues-views-and-bbq-competitors-series
p1858
aVhttp://www.kcbs.us/event/4633/barbecue-on-the-bow
p1859
aVhttp://www.kcbs.us/event/4786/city-of-bedford-blues-bbq-festival
p1860
aVhttp://www.kcbs.us/event/4873/northwest-barbeque-music-festival
p1861
aVhttp://www.kcbs.us/event/4890/hawgin-on-lanier-gbc-sbbqa-qualifier
p1862
aVhttp://www.kcbs.us/event/4984/septemberfest-bbq-rib-eye-steak-cookoff-challenge
p1863
aVhttp://www.kcbs.us/event/4992/thunder-in-the-park-bbq
p1864
aVhttp://www.kcbs.us/event/5084/smokin-brew-bbq
p1865
aVhttp://www.kcbs.us/event/4538/smoke-on-the-river
p1866
aVhttp://www.kcbs.us/event/4580/bands-bbq-at-the-point
p1867
aVhttp://www.kcbs.us/event/4601/best-of-the-west-bbq-fest
p1868
aVhttp://www.kcbs.us/event/4615/puckaway-pigfest
p1869
aVhttp://www.kcbs.us/event/4630/ribs-rods-rock-n-roll
p1870
aVhttp://www.kcbs.us/event/4645/az-rhythm-ribs
p1871
aVhttp://www.kcbs.us/event/4664/6th-annual-southern-york-county-bbq-cook-off
p1872
aVhttp://www.kcbs.us/event/4674/bates-county-barbecue-state-championship-festival
p1873
aVhttp://www.kcbs.us/event/4790/skys-the-limit-bbq-classic
p1874
aVhttp://www.kcbs.us/event/4868/10th-annual-recovery-fest
p1875
aVhttp://www.kcbs.us/event/4930/sams-club-national-bbq-tour-regional
p1876
aVhttp://www.kcbs.us/event/5019/tony-stone-cookeville-cookoff
p1877
aVhttp://www.kcbs.us/event/5078/smokin-on-route-66-bbq-championship
p1878
aVhttp://www.kcbs.us/event/5085/smoke-on-the-river
p1879
aVhttp://www.kcbs.us/event/5143/the-great-vegas-gridiron-grill-off
p1880
aVhttp://www.kcbs.us/event/5147/heart-of-illinois-bbq-beer-bluegrass-festival
p1881
aVhttp://www.kcbs.us/event/5052/red-white-and-que
p1882
aVhttp://www.kcbs.us/event/5090/bbq-masters-in-the-woods
p1883
aVhttp://www.kcbs.us/event/5219/skys-the-limit-bbq-classic-part-two
p1884
aVhttp://www.kcbs.us/event/4554/silver-lake-apple-bbq-festival
p1885
aVhttp://www.kcbs.us/event/4571/biggest-buck-and-best-rack
p1886
aVhttp://www.kcbs.us/event/4619/st-leon-bbq-smoke-fest-and-chili-cook-off
p1887
aVhttp://www.kcbs.us/event/4648/king-turkey-day-smokin-gobbler-cook-off
p1888
aVhttp://www.kcbs.us/event/4700/jug-tavern-festival-gbc-sbbqa-qualifier
p1889
aVhttp://www.kcbs.us/event/4741/rubstock-bbq-championship-a-groovin-time-in-the-foothills-cancelled
p1890
aVhttp://www.kcbs.us/event/4759/colorado-pork-hops-challenge
p1891
aVhttp://www.kcbs.us/event/4803/masters-manna-annual-cook-off-cancelled
p1892
aVhttp://www.kcbs.us/event/4851/black-dog-music-and-que-festival
p1893
aVhttp://www.kcbs.us/event/4875/derby-bbq-festival
p1894
aVhttp://www.kcbs.us/event/4935/sams-club-national-bbq-tour
p1895
aVhttp://www.kcbs.us/event/4977/hogs-and-hops-cancelled
p1896
aVhttp://www.kcbs.us/event/5025/leavenworth-hog-wild-bbq-contest
p1897
aVhttp://www.kcbs.us/event/5071/bama-brew-que
p1898
aVhttp://www.kcbs.us/event/5151/international-goat-days-festival-bbq-bash
p1899
aVhttp://www.kcbs.us/event/5172/coal-cracker-smoke-stoke-bbq-competition
p1900
aVhttp://www.kcbs.us/event/5184/grills-gone-wild-bbq-fest
p1901
aVhttp://www.kcbs.us/event/4675/table-rock-boats-and-bones
p1902
aVhttp://www.kcbs.us/event/4792/harvard-fall-festival-bbq-contest
p1903
aVhttp://www.kcbs.us/event/4982/lowlands-bbq-championship
p1904
aVhttp://www.kcbs.us/event/5134/bbq-on-the-bypass
p1905
aVhttp://www.kcbs.us/event/4569/murphysboro-barbecue-cook-off
p1906
aVhttp://www.kcbs.us/event/4476/tilley-harley-davidson-biker-blues-bbq-rally
p1907
aVhttp://www.kcbs.us/event/4604/28th-annual-cherokee-strip-cookoff
p1908
aVhttp://www.kcbs.us/event/4639/tri-city-bbq-fest
p1909
aVhttp://www.kcbs.us/event/4733/jesse-james-barbeque-cook-out
p1910
aVhttp://www.kcbs.us/event/4794/blazin-bbq-bluegrass
p1911
aVhttp://www.kcbs.us/event/4796/taste-of-autumn-bbq-championships
p1912
aVhttp://www.kcbs.us/event/4832/battle-of-the-brisket
p1913
aVhttp://www.kcbs.us/event/4847/20th-annual-decatur-jaycees-riverfest
p1914
aVhttp://www.kcbs.us/event/4936/sams-club-national-bbq-tour-regional
p1915
aVhttp://www.kcbs.us/event/4961/fiddle-n-pig-shindig
p1916
aVhttp://www.kcbs.us/event/5139/smokin-on-the-track-bbq-festival-cancelled
p1917
aVhttp://www.kcbs.us/event/4707/telluride-barbeque-festival
p1918
aVhttp://www.kcbs.us/event/4828/oinktoberfest
p1919
aVhttp://www.kcbs.us/event/4850/que-by-the-sea
p1920
aVhttp://www.kcbs.us/event/5166/euregio-bbq-festival
p1921
aVhttp://www.kcbs.us/event/4575/the-jim-bowie-bbq-throwdown
p1922
aVhttp://www.kcbs.us/event/4709/piggin-around-cancelled
p1923
aVhttp://www.kcbs.us/event/4754/ohio-veteran-battle-of-the-barbecue-cancelled
p1924
aVhttp://www.kcbs.us/event/4761/butts-and-beans-bbq-challenge
p1925
aVhttp://www.kcbs.us/event/4772/bikes-blues-bbq
p1926
aVhttp://www.kcbs.us/event/4774/ak-sar-bens-river-city-rodeo-stock-show
p1927
aVhttp://www.kcbs.us/event/4824/porktober-que
p1928
aVhttp://www.kcbs.us/event/4830/taste-of-downtown-danville-bbq-competition-cancelled
p1929
aVhttp://www.kcbs.us/event/4852/grillin-n-chillin-bbq
p1930
aVhttp://www.kcbs.us/event/4876/shawnee-great-grillers-state-championship
p1931
aVhttp://www.kcbs.us/event/4955/sams-club-national-bbq-tour-championship
p1932
aVhttp://www.kcbs.us/event/5044/downtown-jonesboro-bbq-festival
p1933
aVhttp://www.kcbs.us/event/5092/hermann-bar-bq-and-brats-festival
p1934
aVhttp://www.kcbs.us/event/5098/burg-fest-bbq-contest
p1935
aVhttp://www.kcbs.us/event/5176/mission-beach-centennial-party-and-bbq
p1936
aVhttp://www.kcbs.us/event/5191/lehigh-valley-quefest
p1937
aVhttp://www.kcbs.us/event/4696/whole-hawg-happenin-sbbqa
p1938
aVhttp://www.kcbs.us/event/5049/the-best-bbq-chef-competition
p1939
aVhttp://www.kcbs.us/event/5153/bbq-on-the-hill-competitors-series-ribs-only
p1940
aVhttp://www.kcbs.us/event/4672/dana-point-state-bbq-championship
p1941
aVhttp://www.kcbs.us/event/4978/35th-annual-american-royal-world-series-of-barbecue-open
p1942
aVhttp://www.kcbs.us/event/4979/35th-annual-american-royal-world-series-of-barbecue-invitational
p1943
aVhttp://www.kcbs.us/event/5091/hog-wild-bbq-festival
p1944
aVhttp://www.kcbs.us/event/4581/jim-beam-bbq-classic
p1945
aVhttp://www.kcbs.us/event/4716/keystone-classic-barbeque
p1946
aVhttp://www.kcbs.us/event/4753/great-miller-lite-chili-and-bbq-cookoff-gbc-qualifier
p1947
aVhttp://www.kcbs.us/event/4825/city-of-earlington-octoberfest
p1948
aVhttp://www.kcbs.us/event/5057/smokin-at-the-market
p1949
aVhttp://www.kcbs.us/event/5061/squealin-on-the-square
p1950
aVhttp://www.kcbs.us/event/5082/go-hog-wild-arkansas-bbq-championship
p1951
aVhttp://www.kcbs.us/event/5142/do-ac-smokin-hot-atlantic-city-bbq-championship
p1952
aVhttp://www.kcbs.us/event/5203/downtown-bbq-showdown
p1953
aVhttp://www.kcbs.us/event/5218/pigfest-usa-only-bbq-contest-is-cancelled
p1954
aVhttp://www.kcbs.us/event/4006/the-river-grill-before-the-big-chill
p1955
aVhttp://www.kcbs.us/event/4620/anchor-city-cook-off
p1956
aVhttp://www.kcbs.us/event/4663/the-real-squeal-lyons-barbeque-music-festival-gbc-sbbqa-qualifier
p1957
aVhttp://www.kcbs.us/event/4689/riverside-blues-bbq-festival
p1958
aVhttp://www.kcbs.us/event/4704/chillin-and-grillin
p1959
aVhttp://www.kcbs.us/event/4749/grilln-chilln-bbq-cook-off
p1960
aVhttp://www.kcbs.us/event/4771/bliss-brews-que
p1961
aVhttp://www.kcbs.us/event/4800/eastern-carolina-bbq-throwdown
p1962
aVhttp://www.kcbs.us/event/4813/smoke-in-the-valley
p1963
aVhttp://www.kcbs.us/event/4846/cookin-on-the-kaw
p1964
aVhttp://www.kcbs.us/event/4853/central-illinois-bragging-rights
p1965
aVhttp://www.kcbs.us/event/4891/4th-annual-high-point-bbq-battle
p1966
aVhttp://www.kcbs.us/event/4902/slab-o-rama-barbeque-challenge
p1967
aVhttp://www.kcbs.us/event/4974/smoke-on-the-water-at-lake-shawnee
p1968
aVhttp://www.kcbs.us/event/5080/rockn-ribville
p1969
aVhttp://www.kcbs.us/event/5174/cullman-oktoberfest-bbq-challenge
p1970
aVhttp://www.kcbs.us/event/5175/indigenous-peoples-day-bbq-cook-off
p1971
aVhttp://www.kcbs.us/event/5246/the-shed-bbq-blues-festival
p1972
aVhttp://www.kcbs.us/event/5220/winnavegas-rib-master-classic
p1973
aVhttp://www.kcbs.us/event/4614/big-buffalo-crossing-bbq-cook-off
p1974
aVhttp://www.kcbs.us/event/4697/9th-annual-lambs-farm-barn-burner-bar-b-q
p1975
aVhttp://www.kcbs.us/event/4722/balloons-bikes-blues-and-barbeque
p1976
aVhttp://www.kcbs.us/event/4724/ohio-smoked-meat-bbq-festival
p1977
aVhttp://www.kcbs.us/event/4756/blazin-bbq-throwdown
p1978
aVhttp://www.kcbs.us/event/4801/mid-south-barbecue-festival
p1979
aVhttp://www.kcbs.us/event/4816/roast-n-boast
p1980
aVhttp://www.kcbs.us/event/4819/shenandoah-valley-bbq-fest
p1981
aVhttp://www.kcbs.us/event/4981/harper-county-bullseye-bbq
p1982
aVhttp://www.kcbs.us/event/5046/back-to-back-to-the-park-bbq
p1983
aVhttp://www.kcbs.us/event/5096/the-fountains-blaze-off-senior-q
p1984
aVhttp://www.kcbs.us/event/5163/casas-big-bbq-bash
p1985
aVhttp://www.kcbs.us/event/5171/casino-queen-bbq-competition
p1986
aVhttp://www.kcbs.us/event/4910/smoke-n-thunder-bbq-classic-sbbqa
p1987
aVhttp://www.kcbs.us/event/5047/back-to-back-to-the-park-bbq-day-2
p1988
aVhttp://www.kcbs.us/event/5050/i-grill-because-i-care-competitors-series
p1989
aVhttp://www.kcbs.us/event/5064/sons-of-the-american-legion-red-white-blue-ii-bbq-contest
p1990
aVhttp://www.kcbs.us/event/5079/bbq-society-cook-off
p1991
aVhttp://www.kcbs.us/event/4582/hogging-up-wv-bbq-festival-cancelled
p1992
aVhttp://www.kcbs.us/event/4658/hillbilly-hog-bbq-throwdown-fall-festival-sbbqa
p1993
aVhttp://www.kcbs.us/event/4680/smokin-the-fort---bbq-bluegrass-festival
p1994
aVhttp://www.kcbs.us/event/4714/border-war-bbq
p1995
aVhttp://www.kcbs.us/event/5213/jack-daniels-world-championship-invitation-barbecue-judges-by-invitation-only
p1996
aVhttp://www.kcbs.us/event/5360/jack-daniels-world-championship-backyard-contest-backyard
p1997
aVhttp://www.kcbs.us/event/5038/usa-barbecue-championship
p1998
aVhttp://www.kcbs.us/event/4637/hog-happnin
p1999
aVhttp://www.kcbs.us/event/4869/when-pigs-fly-south
p2000
aVhttp://www.kcbs.us/event/5101/mo-veterans-home-bbq-bivouac
p2001
aVhttp://www.kcbs.us/event/5106/country-pleasin-grillin-chillin-bbq-classic
p2002
aVhttp://www.kcbs.us/event/5165/smokin-up-the-campground-backyard-style-competitors-series
p2003
aVhttp://www.kcbs.us/event/5102/mo-veterans-home-bbq-bivouac
p2004
aVhttp://www.kcbs.us/event/5223/world-food-championships---world-barbecue-championships-competitiors-series
p2005
aVhttp://www.kcbs.us/event/4870/smoke-on-the-harbor-bbq-throwdown-judges-registration-will-begin-on-6152014
p2006
aVhttp://www.kcbs.us/event/4904/smokin-up-the-saddle-club-sbbqa
p2007
aVhttp://www.kcbs.us/event/5268/char-broil-challenge
p2008
aVhttp://www.kcbs.us/event/4641/plant-city-pig-jam
p2009
aVhttp://www.kcbs.us/event/4773/the-national-bbq-cup-sbbqa
p2010
aVhttp://www.kcbs.us/event/4590/christmas-on-the-river-state-championship-bbq
p2011
aVhttp://www.kcbs.us/event/4836/calhoun-koas
p2012
aVhttp://www.kcbs.us/event/5148/miamis-smokin-on-the-bay-cancelled
p2013
aVhttp://www.kcbs.us/event/4858/king-of-the-smoker-competitors-series-judges-are-full
p2014
aVhttp://www.kcbs.us/event/5192/2014-down-town-throw-down
p2015
asI2015
(lp2016
Vhttp://www.kcbs.us/event/5251/national-western-bbq-throwdown
p2017
aVhttp://www.kcbs.us/event/5260/lakeland-pig-festival
p2018
aVhttp://www.kcbs.us/event/5291/brasstown-valleys-bbq-throwdown---gbc-qualifier-team-spots-available-----judges-full
p2019
aVhttp://www.kcbs.us/event/5337/kansas-winter-q-cancelled
p2020
aVhttp://www.kcbs.us/event/5607/sams-club-national-bbq-tour
p2021
aVhttp://www.kcbs.us/event/5644/the-pig-guinea-pig-competitors-series
p2022
aVhttp://www.kcbs.us/event/5105/shotgun-fred-bbq-showdown
p2023
aVhttp://www.kcbs.us/event/5027/6th-annual-lake-havasu-music-brews-bbq-championship
p2024
aVhttp://www.kcbs.us/event/5444/fire-on-ice-barbecue-world-championship-competitors-series
p2025
aVhttp://www.kcbs.us/event/5608/sams-club-national-bbq-tour
p2026
aVhttp://www.kcbs.us/event/5063/smokin-in-the-square
p2027
aVhttp://www.kcbs.us/event/5613/sams-club-national-bbq-tour
p2028
aVhttp://www.kcbs.us/event/5641/come-to-compete-come-to-learn-nbbqa-championship
p2029
aVhttp://www.kcbs.us/event/5232/dont-be-cruel-bbq-duel
p2030
aVhttp://www.kcbs.us/event/5304/flames-on-the-flint
p2031
aVhttp://www.kcbs.us/event/5487/nkc-mo-state-championship-bbq-cancelled
p2032
aVhttp://www.kcbs.us/event/5614/sams-club-national-bbq-tour
p2033
aVhttp://www.kcbs.us/event/5717/2015-bbq-brew-backyard-contest-only
p2034
aVhttp://www.kcbs.us/event/5424/4th-annual-santa-anita-winners-circle-bbq-championship
p2035
aVhttp://www.kcbs.us/event/5503/3rd-annual-smokin-at-the-run
p2036
aVhttp://www.kcbs.us/event/5626/sams-club-national-bbq-tour
p2037
aVhttp://www.kcbs.us/event/5504/2nd-annual-smokin-at-the-run-shootout
p2038
aVhttp://www.kcbs.us/event/5279/florida-heritage-bbq-classic
p2039
aVhttp://www.kcbs.us/event/5140/fire-ant-festival-bbq-bash
p2040
aVhttp://www.kcbs.us/event/5262/firelake-bbq-cook-off
p2041
aVhttp://www.kcbs.us/event/5300/havasu-landing-ca-judges-list-is-full
p2042
aVhttp://www.kcbs.us/event/5355/smokin-butts-tires---cookoff-and-car-show-gbc-qualifier
p2043
aVhttp://www.kcbs.us/event/5549/throwdown-2015---backyard-only
p2044
aVhttp://www.kcbs.us/event/5627/sams-club-national-bbq-tour
p2045
aVhttp://www.kcbs.us/event/5645/smokin-blues-bbq
p2046
aVhttp://www.kcbs.us/event/5135/que-at-the-view
p2047
aVhttp://www.kcbs.us/event/5253/smokin-on-big-creek-bbq-contest-benefiting-operation-bbq-reliefjudges-full
p2048
aVhttp://www.kcbs.us/event/5270/fifth-annual-bull-moose
p2049
aVhttp://www.kcbs.us/event/5323/stillwater-elks-lodge-blazathon
p2050
aVhttp://www.kcbs.us/event/5590/the-ironman
p2051
aVhttp://www.kcbs.us/event/5628/sams-club-national-bbq-tour
p2052
aVhttp://www.kcbs.us/event/5107/grills-gone-wild-bbq-festival-cancelled
p2053
aVhttp://www.kcbs.us/event/5137/triple-threat-bbq-beer-and-music-festival
p2054
aVhttp://www.kcbs.us/event/5181/smoke-in-the-spring
p2055
aVhttp://www.kcbs.us/event/5233/cedar-fest-bbq
p2056
aVhttp://www.kcbs.us/event/5257/bibs-camel-city-cookoff-formerly-jammin-pig
p2057
aVhttp://www.kcbs.us/event/5271/ccs-spring-festival-bbq-competition
p2058
aVhttp://www.kcbs.us/event/5278/the-best-damn-bbq-contest
p2059
aVhttp://www.kcbs.us/event/5322/the-ultimate-bbq-showdown-east-vs-west-vi
p2060
aVhttp://www.kcbs.us/event/5489/new-york-city-bbq-cookoff
p2061
aVhttp://www.kcbs.us/event/5629/sams-club-national-bbq-tour
p2062
aVhttp://www.kcbs.us/event/5675/smoke-on-the-falls
p2063
aVhttp://www.kcbs.us/event/5180/10th-annual-roberts-ranch-smokin-red-dirt-bbq
p2064
aVhttp://www.kcbs.us/event/5225/bynum-schools-best-of-the-basin-bbq-championship
p2065
aVhttp://www.kcbs.us/event/5394/vfw-post-846-7th-annual-bbq-challenge
p2066
aVhttp://www.kcbs.us/event/5446/7th-annual-main-street-bbq-bluesfest
p2067
aVhttp://www.kcbs.us/event/5450/high-on-the-hog-festival
p2068
aVhttp://www.kcbs.us/event/5500/cornelia-apple-blossom-bbq-festival
p2069
aVhttp://www.kcbs.us/event/5562/2nd-annual-pickin-n-pullin-bbq-competition
p2070
aVhttp://www.kcbs.us/event/5630/sams-club-national-bbq-tour
p2071
aVhttp://www.kcbs.us/event/5648/19th-annual-firehouse-bbq-cook-off
p2072
aVhttp://www.kcbs.us/event/5700/fire-at-the-foothills-bbq-chili-cook-off-backyard-contest
p2073
aVhttp://www.kcbs.us/event/5129/smokin-in-the-creek-bbq-cook-off-cancelled
p2074
aVhttp://www.kcbs.us/event/5195/smokin-in-the-ville
p2075
aVhttp://www.kcbs.us/event/5200/bbq-boogie-blues-gbc-qualifier
p2076
aVhttp://www.kcbs.us/event/5244/morris-twister-days-bbq-competition
p2077
aVhttp://www.kcbs.us/event/5255/wabash-ribber-fest
p2078
aVhttp://www.kcbs.us/event/5318/backyard-bbq-brawl-competitors-series
p2079
aVhttp://www.kcbs.us/event/5352/bbq-capital-cook-off
p2080
aVhttp://www.kcbs.us/event/5407/rock-n-ribs-bbq-festival
p2081
aVhttp://www.kcbs.us/event/5583/central-iowa-expo-bbq
p2082
aVhttp://www.kcbs.us/event/5631/sams-club-national-bbq-tour-regional
p2083
aVhttp://www.kcbs.us/event/5698/the-g-town-smokin-showdown-formerly-known-as-autumn-blaze
p2084
aVhttp://www.kcbs.us/event/5720/saltwater-brew-n-que
p2085
aVhttp://www.kcbs.us/event/5584/central-iowa-expo-bbq
p2086
aVhttp://www.kcbs.us/event/5713/13th-annual-southern-hotwing-festival
p2087
aVhttp://www.kcbs.us/event/5202/bixby-bbqn-blues-festival
p2088
aVhttp://www.kcbs.us/event/5224/the-whistlestop-festival-rocket-city-bbq
p2089
aVhttp://www.kcbs.us/event/5227/brews-blues-bar-b-q-cookoff
p2090
aVhttp://www.kcbs.us/event/5234/naptown-barbayq-contest-and-music-festival
p2091
aVhttp://www.kcbs.us/event/5245/apple-blossom-bbq-contest
p2092
aVhttp://www.kcbs.us/event/5269/george-county-firefighters-association-bbq-challenge
p2093
aVhttp://www.kcbs.us/event/5290/truman-heritage-festival-bbq-championship
p2094
aVhttp://www.kcbs.us/event/5302/the-masters-in-may
p2095
aVhttp://www.kcbs.us/event/5378/pony-express-bbq-challenge-cancelled
p2096
aVhttp://www.kcbs.us/event/5403/route-66-smoke-out-teams-and-judges-full
p2097
aVhttp://www.kcbs.us/event/5496/columbia-elks-lodge-594-bbq-contest
p2098
aVhttp://www.kcbs.us/event/5521/elk-grove-western-festival-bbq-championship
p2099
aVhttp://www.kcbs.us/event/5530/smokin-on-the-water-2
p2100
aVhttp://www.kcbs.us/event/5561/show-low-bbq-throwdown
p2101
aVhttp://www.kcbs.us/event/5835/umb-smokin-vault-competitors-series
p2102
aVhttp://www.kcbs.us/event/5217/ridgefield-gone-country-bbq-festival
p2103
aVhttp://www.kcbs.us/event/5303/the-masters-in-may---the-classic
p2104
aVhttp://www.kcbs.us/event/5449/smokin-in-mesquite-bbq-championship
p2105
aVhttp://www.kcbs.us/event/5524/smokin-on-the-water
p2106
aVhttp://www.kcbs.us/event/5188/boss-hog-state-championship-cook-off-gbc-qualifier
p2107
aVhttp://www.kcbs.us/event/5204/jiggy-with-the-piggy-bbq-challenge
p2108
aVhttp://www.kcbs.us/event/5250/wheatstock-grill-off
p2109
aVhttp://www.kcbs.us/event/5292/mississippi-springfest-bbq-contest
p2110
aVhttp://www.kcbs.us/event/5301/bbq-in-the-bluffs
p2111
aVhttp://www.kcbs.us/event/5311/sertoma-48-bbq
p2112
aVhttp://www.kcbs.us/event/5317/boda-getta-bbq
p2113
aVhttp://www.kcbs.us/event/5330/bbq-jamboree
p2114
aVhttp://www.kcbs.us/event/5398/roman-roast-on-the-river
p2115
aVhttp://www.kcbs.us/event/5401/rockin-bbq-for-riley
p2116
aVhttp://www.kcbs.us/event/5438/wild-west-bbq
p2117
aVhttp://www.kcbs.us/event/5527/smoke-in-the-valley-bbq-competition-festival
p2118
aVhttp://www.kcbs.us/event/5529/boots-bbq-festival
p2119
aVhttp://www.kcbs.us/event/5543/west-coast-bbq-classic
p2120
aVhttp://www.kcbs.us/event/5598/fire-on-the-mountain-bbq-cook-off-and-spring-festival-backyard-bbq-contest-only
p2121
aVhttp://www.kcbs.us/event/5615/sams-club-national-bbq-tour
p2122
aVhttp://www.kcbs.us/event/5185/chesapeake-jubilee-bbq-cook-off
p2123
aVhttp://www.kcbs.us/event/5186/grand-lake-bbq-festival
p2124
aVhttp://www.kcbs.us/event/5364/sevierville-bloomin-bbq-and-bluegrass-festival
p2125
aVhttp://www.kcbs.us/event/5384/20th-annual-platte-city-bbq-cook-off
p2126
aVhttp://www.kcbs.us/event/5441/buckeye-state-bbq-championship
p2127
aVhttp://www.kcbs.us/event/5492/cotton-pickin-bbq-cookoff
p2128
aVhttp://www.kcbs.us/event/5517/minnesota-in-may
p2129
aVhttp://www.kcbs.us/event/5542/bakersfields-biggest-baddest-bbq-championship
p2130
aVhttp://www.kcbs.us/event/5589/1st-annual-flags-are-flying-bbq-festival-backyard-and-kids-qcancelled
p2131
aVhttp://www.kcbs.us/event/5616/sams-club-national-bbq-tour
p2132
aVhttp://www.kcbs.us/event/5681/wba-pork-in-the-park
p2133
aVhttp://www.kcbs.us/event/5797/salt-city-bbq-festival
p2134
aVhttp://www.kcbs.us/event/5267/madison-magazine-bbq-festival
p2135
aVhttp://www.kcbs.us/event/5831/barber-q-battle
p2136
aVhttp://www.kcbs.us/event/5231/best-dam-barbecue
p2137
aVhttp://www.kcbs.us/event/5237/red-white-and-bbq-day-1
p2138
aVhttp://www.kcbs.us/event/5285/bbq-blues-brews-on-the-bay
p2139
aVhttp://www.kcbs.us/event/5366/34th-annual-kennett-jaycee-show-me-state-bbq-cookoff
p2140
aVhttp://www.kcbs.us/event/5402/table-rock-and-ribs-gc-receives-golden-ticket-to-the-world-food-championship
p2141
aVhttp://www.kcbs.us/event/5481/lewisburg-rotary-club-bbq-cookoff
p2142
aVhttp://www.kcbs.us/event/5609/sams-club-national-bbq-tour
p2143
aVhttp://www.kcbs.us/event/5723/papa-joes-banjo-b-que-gbc-qualifier
p2144
aVhttp://www.kcbs.us/event/5238/red-white-and-bbq-day-2
p2145
aVhttp://www.kcbs.us/event/5283/roc-city-rib-fest
p2146
aVhttp://www.kcbs.us/event/5315/sugar-mound-bbq-festival
p2147
aVhttp://www.kcbs.us/event/5497/smokin-in-the-junction
p2148
aVhttp://www.kcbs.us/event/5083/bbq-4-astop
p2149
aVhttp://www.kcbs.us/event/5187/smokin-on-the-lake
p2150
aVhttp://www.kcbs.us/event/5201/royal-gorge-holy-smoke-bbq-showdown
p2151
aVhttp://www.kcbs.us/event/5226/horse-town-brew-n-que-festival
p2152
aVhttp://www.kcbs.us/event/5280/smokin-in-steel
p2153
aVhttp://www.kcbs.us/event/5282/hog-wild-bbq-cookoff-and-family-festival
p2154
aVhttp://www.kcbs.us/event/5365/pigmania-lima
p2155
aVhttp://www.kcbs.us/event/5379/monadnock-up-in-smoke-bbq-fest
p2156
aVhttp://www.kcbs.us/event/5442/4th-annual-valley-veterans-bbq-competition
p2157
aVhttp://www.kcbs.us/event/5452/carnivores-classic
p2158
aVhttp://www.kcbs.us/event/5467/smoke-on-the-prairie
p2159
aVhttp://www.kcbs.us/event/5604/kelley-wilson-memorial-bbq-competition
p2160
aVhttp://www.kcbs.us/event/5606/pig-a-jig-bbq-festival
p2161
aVhttp://www.kcbs.us/event/5610/sams-club-national-bbq-tour
p2162
aVhttp://www.kcbs.us/event/5642/the-rotary-club-of-bearden---que-fest
p2163
aVhttp://www.kcbs.us/event/5786/piggin-in-the-park
p2164
aVhttp://www.kcbs.us/event/5807/beltway-bbq-showdown
p2165
aVhttp://www.kcbs.us/event/5605/rockn-western-rendezvous
p2166
aVhttp://www.kcbs.us/event/5169/poor-que
p2167
aVhttp://www.kcbs.us/event/5211/original-sd-bbq-championships
p2168
aVhttp://www.kcbs.us/event/5295/up-in-smoke-on-the-square
p2169
aVhttp://www.kcbs.us/event/5308/bourbon-city-bbq-festival
p2170
aVhttp://www.kcbs.us/event/5340/mclouth-bbq-blowout-24th-annual-judges-full
p2171
aVhttp://www.kcbs.us/event/5428/hott-butts-bbq-contest
p2172
aVhttp://www.kcbs.us/event/5432/big-blue-bbq-championship
p2173
aVhttp://www.kcbs.us/event/5520/variety-childrens-charity-bbq-bash
p2174
aVhttp://www.kcbs.us/event/5525/2015-keepers-of-the-fire-bbq-contest
p2175
aVhttp://www.kcbs.us/event/5546/que-for-the-troops
p2176
aVhttp://www.kcbs.us/event/5550/smokin-on-the-summit
p2177
aVhttp://www.kcbs.us/event/5587/okfuskee-firefighters-wildfire-cookoff
p2178
aVhttp://www.kcbs.us/event/5600/euharlee-covered-bridge-que-gbc-qualifier
p2179
aVhttp://www.kcbs.us/event/5602/4th-annual-vc-music-fest-bbq
p2180
aVhttp://www.kcbs.us/event/5632/sams-club-national-bbq-tour
p2181
aVhttp://www.kcbs.us/event/5656/hog-happenin-bbq-bike-fest
p2182
aVhttp://www.kcbs.us/event/5679/boats-bands-bbq
p2183
aVhttp://www.kcbs.us/event/5688/smokin-n-rollin-cancelled
p2184
aVhttp://www.kcbs.us/event/5855/smokin-summer-kick-off
p2185
aVhttp://www.kcbs.us/event/5354/fitzgerald-pig-pickin
p2186
aVhttp://www.kcbs.us/event/5357/delta-smoke-bbq-contest-judge-list-is-full
p2187
aVhttp://www.kcbs.us/event/5363/blue-ridge-bbq-music-festival
p2188
aVhttp://www.kcbs.us/event/5399/smokin-on-the-river
p2189
aVhttp://www.kcbs.us/event/5436/3rd-annual-hog-steer-barbecue-competition-and-festival
p2190
aVhttp://www.kcbs.us/event/5479/fire-on-the-frontier-bbq-classic
p2191
aVhttp://www.kcbs.us/event/5531/marietta-river-city-bbq
p2192
aVhttp://www.kcbs.us/event/5558/california-honey-harvest-festival-and-bbq-championship
p2193
aVhttp://www.kcbs.us/event/5633/sams-club-national-bbq-tour
p2194
aVhttp://www.kcbs.us/event/5728/rock-the-block-bbq-competition-cancelled
p2195
aVhttp://www.kcbs.us/event/5774/bend-of-the-river-cookout
p2196
aVhttp://www.kcbs.us/event/5781/big-kahuna-wing-festival-competitors-series
p2197
aVhttp://www.kcbs.us/event/5784/sons-of-the-american-legion-red-white-blue-bbq-contest-cancelled
p2198
aVhttp://www.kcbs.us/event/5387/sun-bbq-fest
p2199
aVhttp://www.kcbs.us/event/5778/bbq-battle-royale-at-taste-of-dallas
p2200
aVhttp://www.kcbs.us/event/5247/barbourville-bbq-cook-off-festival
p2201
aVhttp://www.kcbs.us/event/5266/desoto-shrine-club-7th-annual-2015-bbq-cook-off
p2202
aVhttp://www.kcbs.us/event/5272/miles-city-cowtown-cook-off
p2203
aVhttp://www.kcbs.us/event/5326/peak-city-pigfest
p2204
aVhttp://www.kcbs.us/event/5471/7th-annual-auburn-hills-barbecue-cook-off
p2205
aVhttp://www.kcbs.us/event/5478/state-center-rose-festival-bbq-championship
p2206
aVhttp://www.kcbs.us/event/5501/knights-of-columbus
p2207
aVhttp://www.kcbs.us/event/5509/northern-arizona-bbq-festival-cancelled
p2208
aVhttp://www.kcbs.us/event/5526/22nd-colorado-bbq-challenge
p2209
aVhttp://www.kcbs.us/event/5570/rockn-freedom
p2210
aVhttp://www.kcbs.us/event/5594/crossborder-blues-brews-que
p2211
aVhttp://www.kcbs.us/event/5611/sams-club-national-bbq-tour
p2212
aVhttp://www.kcbs.us/event/5654/milk-cow-music-and-bbq-festival-cancelled
p2213
aVhttp://www.kcbs.us/event/5748/almost-heaven-bbq-bash
p2214
aVhttp://www.kcbs.us/event/5798/eureka-bbq-bash
p2215
aVhttp://www.kcbs.us/event/5806/stagecoach-days-1st-annual-state-bbq-championship
p2216
aVhttp://www.kcbs.us/event/5810/ycc---real-men-can-cook-bbq-comp
p2217
aVhttp://www.kcbs.us/event/5333/smoke-out-in-the-valley
p2218
aVhttp://www.kcbs.us/event/5429/rockn-ribfest-2015
p2219
aVhttp://www.kcbs.us/event/5451/smokin-at-the-ball-park-bbq-fest
p2220
aVhttp://www.kcbs.us/event/5164/leadville-bbq-and-brew-festival
p2221
aVhttp://www.kcbs.us/event/5208/3rd-annual-willard-freedom-feast-bbq-cook-off
p2222
aVhttp://www.kcbs.us/event/5210/smokin-hot-bbq-nassau
p2223
aVhttp://www.kcbs.us/event/5248/3rd-annual-ribstock-mba-bbq-festival
p2224
aVhttp://www.kcbs.us/event/5281/smokin-on-the-pecos
p2225
aVhttp://www.kcbs.us/event/5331/hog-wild-bbq-chrome-fest
p2226
aVhttp://www.kcbs.us/event/5408/battle-of-the-bones
p2227
aVhttp://www.kcbs.us/event/5427/newport-beach-barbecue-contest
p2228
aVhttp://www.kcbs.us/event/5433/blount-county-bbq-bash
p2229
aVhttp://www.kcbs.us/event/5462/silicon-valley-bbq-championships
p2230
aVhttp://www.kcbs.us/event/5507/smoke-on-the-square-in-memory-of-david-harness
p2231
aVhttp://www.kcbs.us/event/5588/great-lenexa-bbq-battle---kansas-state-championship
p2232
aVhttp://www.kcbs.us/event/5603/grillin-in-grafton
p2233
aVhttp://www.kcbs.us/event/5620/sams-club-national-bbq-tour
p2234
aVhttp://www.kcbs.us/event/5734/covington-cork-pork-festival
p2235
aVhttp://www.kcbs.us/event/5514/national-capital-barbecue-battle
p2236
aVhttp://www.kcbs.us/event/5568/mr-bbq-barbeque-challenge
p2237
aVhttp://www.kcbs.us/event/5569/green-mountain-bbq-championship
p2238
aVhttp://www.kcbs.us/event/5793/1st-annual-greenport-harbor-beer-bbq-blues
p2239
aVhttp://www.kcbs.us/event/5857/ribs-rides-bbq-festival-at-dorney-park
p2240
aVhttp://www.kcbs.us/event/5160/blues-hog-barbecue-music-craft-festival
p2241
aVhttp://www.kcbs.us/event/5254/i-love-barbecue-music-festival
p2242
aVhttp://www.kcbs.us/event/5477/pork-brew-bbq-state-championship
p2243
aVhttp://www.kcbs.us/event/5676/back-to-mayberry-bbq
p2244
aVhttp://www.kcbs.us/event/5711/montana-bbq-cook-off
p2245
aVhttp://www.kcbs.us/event/5731/liberty-4th-fest-bbq-contest
p2246
aVhttp://www.kcbs.us/event/5842/hutchfest-bbq-cook-off
p2247
aVhttp://www.kcbs.us/event/5259/sc-festival-of-discovery-teams-and-judges-full
p2248
aVhttp://www.kcbs.us/event/5235/chillin-grillin-in-the-glades
p2249
aVhttp://www.kcbs.us/event/5319/sauce-cycles
p2250
aVhttp://www.kcbs.us/event/5346/gold-ribbin-bbq-fest-of-greater-green-bay
p2251
aVhttp://www.kcbs.us/event/5375/14th-annual-bordertown-bash
p2252
aVhttp://www.kcbs.us/event/5453/johnson-county-fair-bbq
p2253
aVhttp://www.kcbs.us/event/5480/8th-annual-wellsville-bbq-cookoff
p2254
aVhttp://www.kcbs.us/event/5482/wine-country-big-q
p2255
aVhttp://www.kcbs.us/event/5538/9th-ohio-veterans-bbq-cookoff
p2256
aVhttp://www.kcbs.us/event/5621/sams-club-national-bbq-tour
p2257
aVhttp://www.kcbs.us/event/5693/new-jersey-state-barbecue-championship
p2258
aVhttp://www.kcbs.us/event/5701/troy-pig-out-cancelled
p2259
aVhttp://www.kcbs.us/event/5859/holbrook
p2260
aVhttp://www.kcbs.us/event/5867/smoke-on-the-waterfall
p2261
aVhttp://www.kcbs.us/event/5252/riverfest-red-white-and-que
p2262
aVhttp://www.kcbs.us/event/5274/11th-annual-wildblue-bbq
p2263
aVhttp://www.kcbs.us/event/5382/grillers-cup
p2264
aVhttp://www.kcbs.us/event/5493/bbqloo-blues-too
p2265
aVhttp://www.kcbs.us/event/5511/cookin-on-kampeska
p2266
aVhttp://www.kcbs.us/event/5585/wine-brew-bar-b-que-too
p2267
aVhttp://www.kcbs.us/event/5622/sams-club-national-bbq-tour
p2268
aVhttp://www.kcbs.us/event/5640/wakefield-rotary-campus-cook-off
p2269
aVhttp://www.kcbs.us/event/5762/smoke-on-the-mountain---va-state-bbq-championship
p2270
aVhttp://www.kcbs.us/event/5785/cajun-bbq-bash-cancelled
p2271
aVhttp://www.kcbs.us/event/5332/wnc-bbq-festival
p2272
aVhttp://www.kcbs.us/event/5372/dodge-city-days-barbeque-cook-off
p2273
aVhttp://www.kcbs.us/event/5377/5th-annual-morton-bbq-throwdown
p2274
aVhttp://www.kcbs.us/event/5443/smokin-hot-cars-bbq
p2275
aVhttp://www.kcbs.us/event/5533/bbq-fest-cooking-contest
p2276
aVhttp://www.kcbs.us/event/5623/sams-club-national-bbq-tour
p2277
aVhttp://www.kcbs.us/event/5650/up-in-smoke-bbq-bash
p2278
aVhttp://www.kcbs.us/event/5651/hot-pursuit-bbq-cookoff
p2279
aVhttp://www.kcbs.us/event/5695/arvada-on-tap---a-craft-beer-bbq-fest
p2280
aVhttp://www.kcbs.us/event/5699/effing-ham-jam-state-bbq-championship
p2281
aVhttp://www.kcbs.us/event/5714/racing-for-the-bbq
p2282
aVhttp://www.kcbs.us/event/5800/7th-annual-vista-bbq-classic
p2283
aVhttp://www.kcbs.us/event/5860/chattahoochee-river-bbq-competition
p2284
aVhttp://www.kcbs.us/event/5897/days-of-47-bbq-rib-rodeo
p2285
aVhttp://www.kcbs.us/event/5579/harpoon-championships-of-new-england-bbq
p2286
aVhttp://www.kcbs.us/event/5893/illinois-bbq-fest-at-hillcrest-event-center
p2287
aVhttp://www.kcbs.us/event/5265/rossville-tall-corn-festival-bbq-contest
p2288
aVhttp://www.kcbs.us/event/5353/pigs-pedals
p2289
aVhttp://www.kcbs.us/event/5395/lynch-livestock-pig-stampede-cancelled
p2290
aVhttp://www.kcbs.us/event/5437/oaktown-throwdown
p2291
aVhttp://www.kcbs.us/event/5465/laurie-hillbilly-bbq
p2292
aVhttp://www.kcbs.us/event/5536/slv-beat-the-heat---barbeque-brews-and-chili
p2293
aVhttp://www.kcbs.us/event/5547/great-northern-bbq
p2294
aVhttp://www.kcbs.us/event/5649/dillard-bluegrass-barbeque-festival-gbc-qualifier
p2295
aVhttp://www.kcbs.us/event/5624/sams-club-national-bbq-tour
p2296
aVhttp://www.kcbs.us/event/5753/badger-brews-que
p2297
aVhttp://www.kcbs.us/event/5809/i-grill-because-i-care-competitors-series
p2298
aVhttp://www.kcbs.us/event/5813/southern-maryland-brew-bbq
p2299
aVhttp://www.kcbs.us/event/5876/smokin-on-route-66
p2300
aVhttp://www.kcbs.us/event/5884/8th-annual-smokin-at-the-maples
p2301
aVhttp://www.kcbs.us/event/5343/black-dog-music-and-que-festival
p2302
aVhttp://www.kcbs.us/event/5349/smokin-on-the-prairie
p2303
aVhttp://www.kcbs.us/event/5373/ribs-pigs-watermelons
p2304
aVhttp://www.kcbs.us/event/5389/smokin-with-woods-cancelled
p2305
aVhttp://www.kcbs.us/event/5468/smokin-in-mcminnville
p2306
aVhttp://www.kcbs.us/event/5472/mountain-high-bbq-festival-car-show
p2307
aVhttp://www.kcbs.us/event/5486/casas-grab-root-and-growl-bbq
p2308
aVhttp://www.kcbs.us/event/5541/med-city-bbq-musicfest
p2309
aVhttp://www.kcbs.us/event/5593/missouris-north-star-bbq-championship
p2310
aVhttp://www.kcbs.us/event/5625/sams-club-national-bbq-tour-regional
p2311
aVhttp://www.kcbs.us/event/5765/smokin-on-the-smoky
p2312
aVhttp://www.kcbs.us/event/5877/grills-n-grilles--nevada-county-united-way
p2313
aVhttp://www.kcbs.us/event/5647/montana-state-bbq-championship-at-montana-fair
p2314
aVhttp://www.kcbs.us/event/5440/atlanta-barb-que-festival
p2315
aVhttp://www.kcbs.us/event/5476/hudson-valley-ribfest
p2316
aVhttp://www.kcbs.us/event/5490/stand-by-your-grill
p2317
aVhttp://www.kcbs.us/event/5510/conifer-mountain-bbq-challenge
p2318
aVhttp://www.kcbs.us/event/5512/classic-city-bbq-fest-tailgate-show-gbc-qualifier
p2319
aVhttp://www.kcbs.us/event/5545/pepsi-wy-state-championship-bbq-bluegrass-festival
p2320
aVhttp://www.kcbs.us/event/5586/jimmys-roadhouse-backyard-bbq-battle
p2321
aVhttp://www.kcbs.us/event/5634/sams-club-national-bbq-tour
p2322
aVhttp://www.kcbs.us/event/5684/bbq-and-fly-in-on-the-river
p2323
aVhttp://www.kcbs.us/event/5751/23rd-annual-state-bbq-championship-of-nebraska
p2324
aVhttp://www.kcbs.us/event/5757/14th-annual-maryland-state-bbq-bash
p2325
aVhttp://www.kcbs.us/event/5733/kansas-city-kosher-bbq-competition-and-festival-competitors-series
p2326
aVhttp://www.kcbs.us/event/5861/middleton-bbq-fest-cancelled
p2327
aVhttp://www.kcbs.us/event/5498/hill-city-wine-brew-bbq
p2328
aVhttp://www.kcbs.us/event/5515/smokefest
p2329
aVhttp://www.kcbs.us/event/5539/bass-bbq-at-the-forrest-wood-cup-day-1
p2330
aVhttp://www.kcbs.us/event/5581/flint-hills-beef-fest-bbq
p2331
aVhttp://www.kcbs.us/event/5591/madison-ribberfest-bbq-blues-festival
p2332
aVhttp://www.kcbs.us/event/5597/va-bbq-championships
p2333
aVhttp://www.kcbs.us/event/5635/sams-club-national-bbq-tour
p2334
aVhttp://www.kcbs.us/event/5677/blues-brews-barbecue
p2335
aVhttp://www.kcbs.us/event/5776/holy-smoke-bbq-contest
p2336
aVhttp://www.kcbs.us/event/5780/pigs-and-peaches-bbq-festival-gbc-qualifier
p2337
aVhttp://www.kcbs.us/event/5828/cape-jaycees-bbq-fest
p2338
aVhttp://www.kcbs.us/event/5540/bass-bbq-at-the-forrest-wood-cup-day-2
p2339
aVhttp://www.kcbs.us/event/5194/smokin-on-oak
p2340
aVhttp://www.kcbs.us/event/5293/4th-annual-deaths-door-barbecue
p2341
aVhttp://www.kcbs.us/event/5296/new-holland-summer-fest
p2342
aVhttp://www.kcbs.us/event/5329/8th-annual-big-island-bbq
p2343
aVhttp://www.kcbs.us/event/5347/best-of-the-west-bbq-fest
p2344
aVhttp://www.kcbs.us/event/5548/grill-games
p2345
aVhttp://www.kcbs.us/event/5592/east-central-state-bbq-cook-off-paola-roots-festival
p2346
aVhttp://www.kcbs.us/event/5636/sams-club-national-bbq-tour
p2347
aVhttp://www.kcbs.us/event/5718/ribstock-ii-ribs-racing
p2348
aVhttp://www.kcbs.us/event/5722/hawgin-on-lanier-gbc-qualifier
p2349
aVhttp://www.kcbs.us/event/5787/smoke-in-the-valley
p2350
aVhttp://www.kcbs.us/event/5792/back-to-back-to-the-park-bbq
p2351
aVhttp://www.kcbs.us/event/5811/wild-west-bbq-shoot-out
p2352
aVhttp://www.kcbs.us/event/5851/raider-red-meats-bbq-and-ribeye-championship
p2353
aVhttp://www.kcbs.us/event/5905/let-the-drums-roar-bbq-contest-competitors-series-cancelled
p2354
aVhttp://www.kcbs.us/event/5908/first-annual-cleveland-bluegrass-bbq-festival--cancelled
p2355
aVhttp://www.kcbs.us/event/5743/the-best-bbq-chef-competition
p2356
aVhttp://www.kcbs.us/event/5874/the-southern-new-england-kosher-bbq-championship-craft-fair-competitor-series
p2357
aVhttp://www.kcbs.us/event/5314/finger-lakes-fire-smoke
p2358
aVhttp://www.kcbs.us/event/5464/city-of-bedford-blues-bbq-festival
p2359
aVhttp://www.kcbs.us/event/5637/sams-club-national-bbq-tour-regional
p2360
aVhttp://www.kcbs.us/event/5697/smokin-in-the-golden-valley
p2361
aVhttp://www.kcbs.us/event/5732/homecoming-2015-bbq-cookoff
p2362
aVhttp://www.kcbs.us/event/5749/low-country-hog-fest
p2363
aVhttp://www.kcbs.us/event/5775/5th-annual-smokin-in-the-bogs
p2364
aVhttp://www.kcbs.us/event/5812/loretta-lynns-smoke-in-the-hollar-postponed-until-spring-2016
p2365
aVhttp://www.kcbs.us/event/5878/beach-boogie-and-bbq-festival
p2366
aVhttp://www.kcbs.us/event/5891/qing-for-a-cause
p2367
aVhttp://www.kcbs.us/event/5910/whiskey-wings-grill-festival-competitive-series-cancelled
p2368
aVhttp://www.kcbs.us/event/5513/smokin-brew-bbq
p2369
aVhttp://www.kcbs.us/event/5687/bears-smokehouse-new-england-bbq-championships
p2370
aVhttp://www.kcbs.us/event/5726/septemberfest-bbq-rib-eye-steak-cookoff-challenge
p2371
aVhttp://www.kcbs.us/event/5894/blues-views-and-bbq-competitors-series
p2372
aVhttp://www.kcbs.us/event/5243/fiddle-n-pig-shindig
p2373
aVhttp://www.kcbs.us/event/5312/11th-annual-recovery-fest
p2374
aVhttp://www.kcbs.us/event/5348/colorado-pork-hops-challenge
p2375
aVhttp://www.kcbs.us/event/5356/silver-lake-apple-bbq-festival
p2376
aVhttp://www.kcbs.us/event/5361/jug-tavern-festival-bbq-cook-off-cancelled
p2377
aVhttp://www.kcbs.us/event/5404/puckaway-pigfest
p2378
aVhttp://www.kcbs.us/event/5766/decatur-jaycees-21st-annual-riverfest
p2379
aVhttp://www.kcbs.us/event/5557/bands-bbq-at-the-point
p2380
aVhttp://www.kcbs.us/event/5559/butler-chamber-of-commerce-bbq-hucksters-day
p2381
aVhttp://www.kcbs.us/event/5560/ribs-rods-rock-n-roll
p2382
aVhttp://www.kcbs.us/event/5617/sams-club-national-bbq-tour
p2383
aVhttp://www.kcbs.us/event/5682/biggest-buck-and-best-rack
p2384
aVhttp://www.kcbs.us/event/5694/derby-bbq-festival
p2385
aVhttp://www.kcbs.us/event/5696/7th-annual-southern-york-county-bbq-cook-off-cancelled
p2386
aVhttp://www.kcbs.us/event/5715/tony-stone-cookeville-cookoff
p2387
aVhttp://www.kcbs.us/event/5730/leavenworth-hog-wild-bbq-contest
p2388
aVhttp://www.kcbs.us/event/5747/beak-week-bbq-challenge
p2389
aVhttp://www.kcbs.us/event/5814/windy-city-bbq-classic
p2390
aVhttp://www.kcbs.us/event/5875/international-goat-days-championship-bbq
p2391
aVhttp://www.kcbs.us/event/5888/the-outlets-lake-elsinore-bbq-state-championship
p2392
aVhttp://www.kcbs.us/event/5892/independence-fire-ice-bbq
p2393
aVhttp://www.kcbs.us/event/5495/harvard-fall-festival-bbq-contest
p2394
aVhttp://www.kcbs.us/event/5777/balloons-blues-bbq
p2395
aVhttp://www.kcbs.us/event/5945/the-outlets-lake-elsinore-bbq-state-championship
p2396
aVhttp://www.kcbs.us/event/5136/hogs-hops-beer-bbq-festival-cancelled
p2397
aVhttp://www.kcbs.us/event/5189/bbq-on-the-bricks
p2398
aVhttp://www.kcbs.us/event/5264/tilley-harley-davidson-biker-blues-bbq-rally-and-bbq-classic
p2399
aVhttp://www.kcbs.us/event/5297/smoke-on-the-river
p2400
aVhttp://www.kcbs.us/event/5344/2015-colorado-rockies-championship
p2401
aVhttp://www.kcbs.us/event/5430/ktd-smokin-gobbler-cook-off
p2402
aVhttp://www.kcbs.us/event/5484/tri-city-bbq-fest
p2403
aVhttp://www.kcbs.us/event/5494/marshall-county-blazin-bbq-bluegrass
p2404
aVhttp://www.kcbs.us/event/5508/battle-of-the-brisket-cancelled
p2405
aVhttp://www.kcbs.us/event/5535/jesse-james-barbeque-cook-out
p2406
aVhttp://www.kcbs.us/event/5544/taste-of-autumn-bbq-championships
p2407
aVhttp://www.kcbs.us/event/5612/sams-club-national-bbq-tour-regional
p2408
aVhttp://www.kcbs.us/event/5727/firin-up-the-fox-bbq-contest-craft-beer-festival-cancelled
p2409
aVhttp://www.kcbs.us/event/5754/cherokee-strip-bbq-cookoff
p2410
aVhttp://www.kcbs.us/event/5826/nebo-fall-festival-bbq
p2411
aVhttp://www.kcbs.us/event/5474/table-rock-boats-and-bones
p2412
aVhttp://www.kcbs.us/event/5475/que-by-the-sea
p2413
aVhttp://www.kcbs.us/event/5523/hot-springs-blues-bbq
p2414
aVhttp://www.kcbs.us/event/5582/oinktoberfest
p2415
aVhttp://www.kcbs.us/event/5313/jim-bowie-bbq-throwdown
p2416
aVhttp://www.kcbs.us/event/5431/murphysboro-barbecue-cook-off
p2417
aVhttp://www.kcbs.us/event/5469/butts-and-beans-bbq-challenge
p2418
aVhttp://www.kcbs.us/event/5491/bama-brew-que
p2419
aVhttp://www.kcbs.us/event/5522/bikes-blues-bbq
p2420
aVhttp://www.kcbs.us/event/5567/grillin-n-chillin-bbq
p2421
aVhttp://www.kcbs.us/event/5619/sams-club-national-bbq-tour-regional
p2422
aVhttp://www.kcbs.us/event/5683/burg-fest-bbq-contest
p2423
aVhttp://www.kcbs.us/event/5692/shawnee-great-grillers-state-championship
p2424
aVhttp://www.kcbs.us/event/5756/downtown-jonesboro-bbq-festival
p2425
aVhttp://www.kcbs.us/event/5791/heiferz-hogz-henz-smoke-out-500-cancelled
p2426
aVhttp://www.kcbs.us/event/5840/porktober-que
p2427
aVhttp://www.kcbs.us/event/5841/what-happens-in-vegasis-smokin-cancelled
p2428
aVhttp://www.kcbs.us/event/5847/bryants-buzzin-bbq-bash
p2429
aVhttp://www.kcbs.us/event/5850/hermann-bar-bq-and-brats-festival--cancelled
p2430
aVhttp://www.kcbs.us/event/5853/smoke-in-the-park
p2431
aVhttp://www.kcbs.us/event/5858/1st-annual-4h-camp-bbq-cookoff-cancelled
p2432
aVhttp://www.kcbs.us/event/5870/grill-cook-master
p2433
aVhttp://www.kcbs.us/event/5901/oak-grove-bbq-lemonade-festival
p2434
aVhttp://www.kcbs.us/event/5914/jammin-in-jc-blues-bbq-festival
p2435
aVhttp://www.kcbs.us/event/5958/aksarben-stock-show-rodeo
p2436
aVhttp://www.kcbs.us/event/5686/red-white-and-que
p2437
aVhttp://www.kcbs.us/event/5829/barbeque-on-the-hill-competitors-series
p2438
aVhttp://www.kcbs.us/event/5750/hog-wild-bbq-festival
p2439
aVhttp://www.kcbs.us/event/5327/jim-beam-bbq-classic
p2440
aVhttp://www.kcbs.us/event/5400/city-of-dana-point-state-bbq-championship
p2441
aVhttp://www.kcbs.us/event/5488/keystone-classic-barbeque
p2442
aVhttp://www.kcbs.us/event/5534/city-of-earlington-octoberfest-cancelled
p2443
aVhttp://www.kcbs.us/event/5673/go-hog-wild-arkansas-bbq-championship
p2444
aVhttp://www.kcbs.us/event/5788/roast-n-boast
p2445
aVhttp://www.kcbs.us/event/5789/1st-annual-hot-qs-cold-brews-bbq-championship
p2446
aVhttp://www.kcbs.us/event/5801/smoke-n-thunder-bbq-classic-day-1-gbc-qualifier
p2447
aVhttp://www.kcbs.us/event/5815/squealin-on-the-square
p2448
aVhttp://www.kcbs.us/event/5871/smoke-on-the-water-backyard
p2449
aVhttp://www.kcbs.us/event/5886/36th-annual-american-royal-world-series-of-barbeque--invitational
p2450
aVhttp://www.kcbs.us/event/5920/smokin-at-the-market-cancelled
p2451
aVhttp://www.kcbs.us/event/5933/umkc-royal-roo-collegiate-bbq-competition-competitors-series
p2452
aVhttp://www.kcbs.us/event/5802/smoke-n-thunder-bbq-classic-day-2-gbc-qualifier
p2453
aVhttp://www.kcbs.us/event/5887/36th-annual-american-royal-world-series-of-barbeque--open
p2454
aVhttp://www.kcbs.us/event/5869/bbq-and-blues-on-the-levee
p2455
aVhttp://www.kcbs.us/event/5339/chillin-and-grillin
p2456
aVhttp://www.kcbs.us/event/5345/anchor-city-cook-off
p2457
aVhttp://www.kcbs.us/event/5374/the-real-squeal-gbc-qualifier
p2458
aVhttp://www.kcbs.us/event/5397/riverside-blues-brews-bbq-festival
p2459
aVhttp://www.kcbs.us/event/5439/slab-o-rama-barbeque-challenge
p2460
aVhttp://www.kcbs.us/event/5470/eastern-carolina-bbq-throwdown
p2461
aVhttp://www.kcbs.us/event/5537/the-river-grill-before-the-big-chill
p2462
aVhttp://www.kcbs.us/event/5643/rockn-ribville
p2463
aVhttp://www.kcbs.us/event/5646/waxhaw-grilln-chilln
p2464
aVhttp://www.kcbs.us/event/5674/central-illinois-bragging-rights
p2465
aVhttp://www.kcbs.us/event/5678/cookin-on-the-kaw
p2466
aVhttp://www.kcbs.us/event/5708/sams-club-national-bbq-tour-championship
p2467
aVhttp://www.kcbs.us/event/5721/bliss-brews-que
p2468
aVhttp://www.kcbs.us/event/5724/smoke-on-the-water
p2469
aVhttp://www.kcbs.us/event/5849/downtown-bbq-showdown
p2470
aVhttp://www.kcbs.us/event/5934/smokin-hot-atlantic-city-bbq-championship-15000
p2471
aVhttp://www.kcbs.us/event/5978/holmes-drywall-bbq-cookoff-2015-backyard-invitational
p2472
aVhttp://www.kcbs.us/event/5371/smoking-in-the-foothills-barbecue-competition-and-festival
p2473
aVhttp://www.kcbs.us/event/5376/big-buffalo-crossing-bbq-cook-off
p2474
aVhttp://www.kcbs.us/event/5380/ohio-smoked-meat-bbq-festival
p2475
aVhttp://www.kcbs.us/event/5383/mid-south-barbecue-festival
p2476
aVhttp://www.kcbs.us/event/5388/10th-annual-lambs-farm-barn-burner-bar-b-q
p2477
aVhttp://www.kcbs.us/event/5423/harper-county-bullseye-bbq
p2478
aVhttp://www.kcbs.us/event/5463/balloons-bikes-blues-and-barbeque
p2479
aVhttp://www.kcbs.us/event/5742/shenandoah-valley-bbq-fest
p2480
aVhttp://www.kcbs.us/event/5890/grills-and-grilles
p2481
aVhttp://www.kcbs.us/event/5725/dallas-kosher-bbq-championship-competitors-series
p2482
aVhttp://www.kcbs.us/event/5381/border-war-bbq
p2483
aVhttp://www.kcbs.us/event/5445/smokin-the-fort---bbq-bluegrass-festival
p2484
aVhttp://www.kcbs.us/event/5499/hillbilly-hog-bbq-throwdown-fall-festival
p2485
aVhttp://www.kcbs.us/event/5752/jack-daniels-world-championship-invitation-barbecue-judges-by-invitation-only
p2486
aVhttp://www.kcbs.us/event/5832/best-of-the-midwest-bbq-cook-off
p2487
aVhttp://www.kcbs.us/event/5848/fountains-blaze-off-senior-q
p2488
aVhttp://www.kcbs.us/event/6015/jack-daniels-world-championship-shade-tree-contest-backyard---judges-full
p2489
aVhttp://www.kcbs.us/event/6002/oktoberfeast-bbq-brews-festival
p2490
aVhttp://www.kcbs.us/event/5918/boo-b-que-by-the-sea
p2491
aVhttp://www.kcbs.us/event/5790/world-food-championships
p2492
aVhttp://www.kcbs.us/event/5466/hog-happnin
p2493
aVhttp://www.kcbs.us/event/5845/when-pigs-fly-south
p2494
aVhttp://www.kcbs.us/event/5872/quen-in-the-park--cancelled
p2495
aVhttp://www.kcbs.us/event/5902/mvh-bbq-bivouac-armed-forces-tribute
p2496
aVhttp://www.kcbs.us/event/5971/flags-are-flying
p2497
aVhttp://www.kcbs.us/event/5904/mvh-bbq-bivouac-powmia-tribute
p2498
aVhttp://www.kcbs.us/event/5953/hangout-oyster-cook-off-craft-beer-weekend-competitors-series
p2499
aVhttp://www.kcbs.us/event/6112/kcbs-test-contest----do-not-apply---only-a-test
p2500
aVhttp://www.kcbs.us/event/5386/richland-char-broil-challenge
p2501
aVhttp://www.kcbs.us/event/5502/smoke-on-the-harbor-bbq-throwdown
p2502
aVhttp://www.kcbs.us/event/5779/smokin-up-the-saddle-club-gbc-qualifier
p2503
aVhttp://www.kcbs.us/event/5975/indio-california-state-bbq-championship--judges-full
p2504
aVhttp://www.kcbs.us/event/5685/the-national-bbq-cup
p2505
aVhttp://www.kcbs.us/event/5825/bar-b-cure
p2506
aVhttp://www.kcbs.us/event/5833/plant-city-pig-jam---state-championship-bbq-contest
p2507
aVhttp://www.kcbs.us/event/6014/mission-q-backyard
p2508
aVhttp://www.kcbs.us/event/5854/calhoun-koas-smokin-up-the-campground-gbc-qualifier
p2509
aVhttp://www.kcbs.us/event/5880/christmas-on-the-river-state-championship-bbq
p2510
aVhttp://www.kcbs.us/event/5984/2015-downtown-barbecue-throwdown
p2511
aVhttp://www.kcbs.us/event/5990/king-of-the-smoker-invitational-judges-full
p2512
as.