(dp0
S'co'
p1
S'west'
p2
sS'ca'
p3
g2
sS'ga'
p4
S'south'
p5
sS'ct'
p6
S'northeast'
p7
sS'tx'
p8
g5
sS'la'
p9
g5
sS'tn'
p10
g5
sS'pa'
p11
g7
sS'de'
p12
g7
sS'hi'
p13
S'pacific'
p14
sS'me'
p15
g7
sS'md'
p16
g5
sS'ma'
p17
g7
sS'ut'
p18
g2
sS'mo'
p19
S'midwest'
p20
sS'mn'
p21
g20
sS'mi'
p22
g20
sS'mt'
p23
g2
sS'ms'
p24
g2
sS'va'
p25
g5
sS'ak'
p26
g14
sS'al'
p27
g5
sS'ar'
p28
g5
sS'vt'
p29
g7
sS'il'
p30
g20
sS'in'
p31
g20
sS'ia'
p32
g20
sS'az'
p33
S'southwest'
p34
sS'id'
p35
g2
sS'nh'
p36
g7
sS'nj'
p37
g7
sS'nm'
p38
g34
sS'nc'
p39
g5
sS'nd'
p40
g20
sS'ne'
p41
g20
sS'ny'
p42
g7
sS'ri'
p43
g7
sS'nv'
p44
g2
sS'wa'
p45
S'northwest'
p46
sS'wi'
p47
g20
sS'wv'
p48
g5
sS'fl'
p49
g5
sS'wy'
p50
g2
sS'ok'
p51
g5
sS'oh'
p52
g20
sS'ks'
p53
g20
sS'sc'
p54
g5
sS'ky'
p55
g5
sS'or'
p56
g46
sS'sd'
p57
g20
s.