(dp0
S'va'
p1
(dp2
S'teams_competed'
p3
L686L
sS'exists'
p4
I01
sS'hot_month'
p5
S'September'
p6
sS'prize_avg'
p7
F8130.952380952381
sS'region'
p8
S'south'
p9
sS'fullname'
p10
S'Virginia'
p11
ssS'co'
p12
(dp13
g3
L490L
sg4
I01
sg5
S'June'
p14
sg7
F9960.648148148148
sg8
S'west'
p15
sg10
S'Colorado'
p16
ssS'ca'
p17
(dp18
g3
L1154L
sg4
I01
sg5
S'August'
p19
sg7
F10537.280701754386
sg8
g15
sg10
S'California'
p20
ssS'al'
p21
(dp22
g3
L721L
sg4
I01
sg5
S'September'
p23
sg7
F8496.176470588236
sg8
g9
sg10
S'Alabama'
p24
ssS'ar'
p25
(dp26
g3
L755L
sg4
I01
sg5
S'September'
p27
sg7
F20126.8
sg8
g9
sg10
S'Arkansas'
p28
ssS'vt'
p29
(dp30
g3
L112L
sg4
I01
sg5
S'July'
p31
sg7
F5148.75
sg8
S'northeast'
p32
sg10
S'Vermont'
p33
ssS'il'
p34
(dp35
g3
L851L
sg4
I01
sg5
S'June'
p36
sg7
F7634.788732394366
sg8
S'midwest'
p37
sg10
S'Illinois'
p38
ssS'ga'
p39
(dp40
g3
L1049L
sg4
I01
sg5
S'August'
p41
sg7
F11763.632075471698
sg8
g9
sg10
S'Georgia'
p42
ssS'in'
p43
(dp44
g3
L512L
sg4
I01
sg5
S'July'
p45
sg7
F6451.153846153846
sg8
g37
sg10
S'Indiana'
p46
ssS'ia'
p47
(dp48
g3
L561L
sg4
I01
sg5
S'July'
p49
sg7
F7310.357142857143
sg8
g37
sg10
S'Iowa'
p50
ssS'az'
p51
(dp52
g3
L267L
sg4
I01
sg5
S'May'
p53
sg7
F10625.0
sg8
S'southwest'
p54
sg10
S'Arizona'
p55
ssS'id'
p56
(dp57
g3
L41L
sg4
I01
sg5
S'September'
p58
sg7
F7300.0
sg8
g15
sg10
S'Idaho'
p59
ssS'ct'
p60
(dp61
g3
L242L
sg4
I01
sg5
S'August'
p62
sg7
F7730.0
sg8
g32
sg10
S'Connecticut'
p63
ssS'nh'
p64
(dp65
g3
L115L
sg4
I01
sg5
S'June'
p66
sg7
F3233.3333333333335
sg8
g32
sg10
S'New Hampshire'
p67
ssS'nj'
p68
(dp69
g3
L351L
sg4
I01
sg5
S'September'
p70
sg7
F12057.894736842105
sg8
g32
sg10
S'New Jersey'
p71
ssS'nm'
p72
(dp73
g3
L205L
sg4
I01
sg5
S'June'
p74
sg7
F13000.0
sg8
g54
sg10
S'New Mexico'
p75
ssS'tx'
p76
(dp77
g3
L899L
sg4
I01
sg5
S'October'
p78
sg7
F9035.29411764706
sg8
g9
sg10
S'Texas'
p79
ssS'la'
p80
(dp81
g3
L246L
sg4
I01
sg5
S'March'
p82
sg7
F9145.833333333334
sg8
g9
sg10
S'Louisiana'
p83
ssS'nc'
p84
(dp85
g3
L809L
sg4
I01
sg5
S'September'
p86
sg7
F11987.297297297297
sg8
g9
sg10
S'North Carolina'
p87
ssS'nd'
p88
(dp89
g3
I0
sg4
I00
sg5
S'NA'
p90
sg7
g90
sg8
g37
sg10
S'North Dakota'
p91
ssS'ne'
p92
(dp93
g3
L490L
sg4
I01
sg5
S'August'
p94
sg7
F8915.135135135135
sg8
g37
sg10
S'Nebraska'
p95
ssS'tn'
p96
(dp97
g3
L1257L
sg4
I01
sg5
S'September'
p98
sg7
F8977.127659574468
sg8
g9
sg10
S'Tennessee'
p99
ssS'ny'
p100
(dp101
g3
L549L
sg4
I01
sg5
S'August'
p102
sg7
F5967.5609756097565
sg8
g32
sg10
S'New York'
p103
ssS'pa'
p104
(dp105
g3
L523L
sg4
I01
sg5
S'August'
p106
sg7
F5994.642857142857
sg8
g32
sg10
S'Pennsylvania'
p107
ssS'ak'
p108
(dp109
g3
I0
sg4
I00
sg5
g90
sg7
g90
sg8
S'pacific'
p110
sg10
S'Alaska'
p111
ssS'nv'
p112
(dp113
g3
L490L
sg4
I01
sg5
S'May'
p114
sg7
F22278.78787878788
sg8
g15
sg10
S'Nevada'
p115
ssS'wa'
p116
(dp117
g3
L85L
sg4
I01
sg5
S'April'
p118
sg7
F8514.285714285714
sg8
S'northwest'
p119
sg10
S'Washington'
p120
ssS'de'
p121
(dp122
g3
L267L
sg4
I01
sg5
S'April'
p123
sg7
F11698.75
sg8
g32
sg10
S'Delaware'
p124
ssS'wi'
p125
(dp126
g3
L593L
sg4
I01
sg5
S'August'
p127
sg7
F6844.705882352941
sg8
g37
sg10
S'Wisconsin'
p128
ssS'wv'
p129
(dp130
g3
L119L
sg4
I01
sg5
S'June'
p131
sg7
F8600.0
sg8
g9
sg10
S'West Virginia'
p132
ssS'hi'
p133
(dp134
g3
I0
sg4
I00
sg5
g90
sg7
g90
sg8
g110
sg10
S'Hawaii'
p135
ssS'ok'
p136
(dp137
g3
L859L
sg4
I01
sg5
S'September'
p138
sg7
F9206.02564102564
sg8
g9
sg10
S'Oklahoma'
p139
ssS'fl'
p140
(dp141
g3
L502L
sg4
I01
sg5
S'November'
p142
sg7
F11318.296296296296
sg8
g9
sg10
S'Florida'
p143
ssS'wy'
p144
(dp145
g3
L180L
sg4
I01
sg5
S'August'
p146
sg7
F7716.176470588235
sg8
g15
sg10
S'Wyoming'
p147
ssS'me'
p148
(dp149
g3
L96L
sg4
I01
sg5
S'August'
p150
sg7
F8062.5
sg8
g32
sg10
S'Maine'
p151
ssS'md'
p152
(dp153
g3
L487L
sg4
I01
sg5
S'August'
p154
sg7
F9324.242424242424
sg8
g9
sg10
S'Maryland'
p155
ssS'ma'
p156
(dp157
g3
L131L
sg4
I01
sg5
S'October'
p158
sg7
F4094.4444444444443
sg8
g32
sg10
S'Massachusetts'
p159
ssS'oh'
p160
(dp161
g3
L298L
sg4
I01
sg5
S'October'
p162
sg7
F7390.260869565217
sg8
g37
sg10
S'Ohio'
p163
ssS'ut'
p164
(dp165
g3
L108L
sg4
I01
sg5
S'April'
p166
sg7
F9300.0
sg8
g15
sg10
S'Utah'
p167
ssS'mo'
p168
(dp169
g3
L2743L
sg4
I01
sg5
S'September'
p170
sg7
F6958.181818181818
sg8
g37
sg10
S'Missouri'
p171
ssS'mn'
p172
(dp173
g3
L485L
sg4
I01
sg5
S'August'
p174
sg7
F8104.530612244898
sg8
g37
sg10
S'Minnesota'
p175
ssS'mi'
p176
(dp177
g3
L295L
sg4
I01
sg5
S'August'
p178
sg7
F7493.939393939394
sg8
g37
sg10
S'Michigan'
p179
ssS'ri'
p180
(dp181
g3
L87L
sg4
I01
sg5
S'July'
p182
sg7
F5200.0
sg8
g32
sg10
S'Rhode Island'
p183
ssS'ks'
p184
(dp185
g3
L2409L
sg4
I01
sg5
S'September'
p186
sg7
F7278.611111111111
sg8
g37
sg10
S'Kansas'
p187
ssS'mt'
p188
(dp189
g3
L180L
sg4
I01
sg5
S'June'
p190
sg7
F8506.5625
sg8
g15
sg10
S'Montana'
p191
ssS'ms'
p192
(dp193
g3
L703L
sg4
I01
sg5
S'May'
p194
sg7
F9062.211538461539
sg8
g15
sg10
S'Mississippi'
p195
ssS'sc'
p196
(dp197
g3
L458L
sg4
I01
sg5
S'September'
p198
sg7
F9376.911764705883
sg8
g9
sg10
S'South Carolina'
p199
ssS'ky'
p200
(dp201
g3
L419L
sg4
I01
sg5
S'September'
p202
sg7
F8944.23076923077
sg8
g9
sg10
S'Kentucky'
p203
ssS'or'
p204
(dp205
g3
L104L
sg4
I01
sg5
S'May'
p206
sg7
F6502.5
sg8
g119
sg10
S'Oregon'
p207
ssS'sd'
p208
(dp209
g3
L253L
sg4
I01
sg5
S'September'
p210
sg7
F8241.304347826086
sg8
g37
sg10
S'South Dakota'
p211
ss.