(dp0
S'co'
p1
S'Colorado'
p2
sS'ca'
p3
S'California'
p4
sS'ga'
p5
S'Georgia'
p6
sS'ct'
p7
S'Connecticut'
p8
sS'tx'
p9
S'Texas'
p10
sS'la'
p11
S'Louisiana'
p12
sS'tn'
p13
S'Tennessee'
p14
sS'pa'
p15
S'Pennsylvania'
p16
sS'de'
p17
S'Delaware'
p18
sS'hi'
p19
S'Hawaii'
p20
sS'me'
p21
S'Maine'
p22
sS'md'
p23
S'Maryland'
p24
sS'ma'
p25
S'Massachusetts'
p26
sS'ut'
p27
S'Utah'
p28
sS'mo'
p29
S'Missouri'
p30
sS'mn'
p31
S'Minnesota'
p32
sS'mi'
p33
S'Michigan'
p34
sS'mt'
p35
S'Montana'
p36
sS'ms'
p37
S'Mississippi'
p38
sS'va'
p39
S'Virginia'
p40
sS'ak'
p41
S'Alaska'
p42
sS'al'
p43
S'Alabama'
p44
sS'ar'
p45
S'Arkansas'
p46
sS'vt'
p47
S'Vermont'
p48
sS'il'
p49
S'Illinois'
p50
sS'in'
p51
S'Indiana'
p52
sS'ia'
p53
S'Iowa'
p54
sS'az'
p55
S'Arizona'
p56
sS'id'
p57
S'Idaho'
p58
sS'nh'
p59
S'New Hampshire'
p60
sS'nj'
p61
S'New Jersey'
p62
sS'nm'
p63
S'New Mexico'
p64
sS'nc'
p65
S'North Carolina'
p66
sS'nd'
p67
S'North Dakota'
p68
sS'ne'
p69
S'Nebraska'
p70
sS'ny'
p71
S'New York'
p72
sS'ri'
p73
S'Rhode Island'
p74
sS'nv'
p75
S'Nevada'
p76
sS'wa'
p77
S'Washington'
p78
sS'wi'
p79
S'Wisconsin'
p80
sS'wv'
p81
S'West Virginia'
p82
sS'fl'
p83
S'Florida'
p84
sS'wy'
p85
S'Wyoming'
p86
sS'ok'
p87
S'Oklahoma'
p88
sS'oh'
p89
S'Ohio'
p90
sS'ks'
p91
S'Kansas'
p92
sS'sc'
p93
S'South Carolina'
p94
sS'ky'
p95
S'Kentucky'
p96
sS'or'
p97
S'Oregon'
p98
sS'sd'
p99
S'South Dakota'
p100
s.